
CH32V305RBT6SOCKETCANINTERFACE.elf:     file format elf32-littleriscv
CH32V305RBT6SOCKETCANINTERFACE.elf
architecture: riscv:rv32, flags 0x00000112:
EXEC_P, HAS_SYMS, D_PAGED
start address 0x00000000

Program Header:
    LOAD off    0x00001000 vaddr 0x00000000 paddr 0x00000000 align 2**12
         filesz 0x00003358 memsz 0x00003358 flags r-x
    LOAD off    0x00005000 vaddr 0x20000000 paddr 0x00003358 align 2**12
         filesz 0x00000120 memsz 0x0000083c flags rw-
    LOAD off    0x00005800 vaddr 0x20007800 paddr 0x20007800 align 2**12
         filesz 0x00000000 memsz 0x00000800 flags rw-

Sections:
Idx Name          Size      VMA       LMA       File off  Algn
  0 .init         00000004  00000000  00000000  00001000  2**1
                  CONTENTS, ALLOC, LOAD, READONLY, CODE
  1 .vector       000001bc  00000004  00000004  00001004  2**1
                  CONTENTS, ALLOC, LOAD, READONLY, CODE
  2 .text         00003198  000001c0  000001c0  000011c0  2**2
                  CONTENTS, ALLOC, LOAD, READONLY, CODE
  3 .fini         00000000  00003358  00003358  00005120  2**0
                  CONTENTS, ALLOC, LOAD, CODE
  4 .dalign       00000000  20000000  20000000  00005120  2**0
                  CONTENTS
  5 .dlalign      00000000  00003358  00003358  00005120  2**0
                  CONTENTS
  6 .data         00000120  20000000  00003358  00005000  2**2
                  CONTENTS, ALLOC, LOAD, DATA
  7 .bss          0000071c  20000120  00003478  00005120  2**2
                  ALLOC
  8 .stack        00000800  20007800  20007800  00005800  2**0
                  ALLOC
  9 .debug_info   0000f934  00000000  00000000  00005120  2**0
                  CONTENTS, READONLY, DEBUGGING
 10 .debug_abbrev 00002d94  00000000  00000000  00014a54  2**0
                  CONTENTS, READONLY, DEBUGGING
 11 .debug_loc    00003405  00000000  00000000  000177e8  2**0
                  CONTENTS, READONLY, DEBUGGING
 12 .debug_aranges 000006f8  00000000  00000000  0001abf0  2**3
                  CONTENTS, READONLY, DEBUGGING
 13 .debug_ranges 000007d0  00000000  00000000  0001b2e8  2**3
                  CONTENTS, READONLY, DEBUGGING
 14 .debug_line   0000b4cf  00000000  00000000  0001bab8  2**0
                  CONTENTS, READONLY, DEBUGGING
 15 .debug_str    000030e1  00000000  00000000  00026f87  2**0
                  CONTENTS, READONLY, DEBUGGING
 16 .comment      00000033  00000000  00000000  0002a068  2**0
                  CONTENTS, READONLY
 17 .debug_frame  00001718  00000000  00000000  0002a09c  2**2
                  CONTENTS, READONLY, DEBUGGING
 18 .stab         00000084  00000000  00000000  0002b7b4  2**2
                  CONTENTS, READONLY, DEBUGGING
 19 .stabstr      00000117  00000000  00000000  0002b838  2**0
                  CONTENTS, READONLY, DEBUGGING
SYMBOL TABLE:
00000000 l    d  .init	00000000 .init
00000004 l    d  .vector	00000000 .vector
000001c0 l    d  .text	00000000 .text
00003358 l    d  .fini	00000000 .fini
20000000 l    d  .dalign	00000000 .dalign
00003358 l    d  .dlalign	00000000 .dlalign
20000000 l    d  .data	00000000 .data
20000120 l    d  .bss	00000000 .bss
20007800 l    d  .stack	00000000 .stack
00000000 l    d  .debug_info	00000000 .debug_info
00000000 l    d  .debug_abbrev	00000000 .debug_abbrev
00000000 l    d  .debug_loc	00000000 .debug_loc
00000000 l    d  .debug_aranges	00000000 .debug_aranges
00000000 l    d  .debug_ranges	00000000 .debug_ranges
00000000 l    d  .debug_line	00000000 .debug_line
00000000 l    d  .debug_str	00000000 .debug_str
00000000 l    d  .comment	00000000 .comment
00000000 l    d  .debug_frame	00000000 .debug_frame
00000000 l    d  .stab	00000000 .stab
00000000 l    d  .stabstr	00000000 .stabstr
00000000 l    df *ABS*	00000000 ./Startup/startup_ch32v30x_D8C.o
00000004 l       .vector	00000000 _vector_base
00000000 l    df *ABS*	00000000 can_drv.c
000002c8 l     F .text	0000002a apply_filter_accept_all
000002f2 l     F .text	000000c2 can_rx0_isr_body
20000150 l     O .bss	00000028 s_bt
0000316c l     O .text	00000014 s_bt_default
20000120 l     O .bss	00000002 s_open
20000108 l     O .data	00000008 s_can
00000000 l    df *ABS*	00000000 ch32v30x_it.c
00000000 l    df *ABS*	00000000 gs_can.c
00000714 l     F .text	00000036 tx_q_push
0000074a l     F .text	00000040 pump_tx_in
20000178 l     O .bss	00000280 s_tx_q
20000000 l     O .data	00000028 s_bt_const
20000028 l     O .data	0000000c s_dev_cfg
00003180 l     O .text	0000000c zero.5601
20000122 l     O .bss	00000001 identify_mask.5617
20000123 l     O .bss	00000001 s_tx_q_head
20000124 l     O .bss	00000001 s_tx_q_tail
20000110 l     O .data	00000004 zero.5599
00000000 l    df *ABS*	00000000 led.c
000008e2 l     F .text	00000030 led_apply
20000125 l     O .bss	00000001 s_can_open
20000126 l     O .bss	00000001 s_identify
00000000 l    df *ABS*	00000000 main.c
00000000 l    df *ABS*	00000000 system_ch32v30x.c
00000000 l    df *ABS*	00000000 usbhs_dev.c
00000bf6 l     F .text	0000005a usbhs_endp_init
00000c50 l     F .text	00000052 ep0_tx_chunk
200003f8 l     O .bss	00000040 s_ep0_buf
20000438 l     O .bss	00000200 s_ep1_in_buf
20000638 l     O .bss	00000200 s_ep2_out_buf
20000127 l     O .bss	00000001 s_dev_addr
20000128 l     O .bss	00000001 s_dev_config
20000129 l     O .bss	00000001 s_dev_configured
2000012a l     O .bss	00000001 s_dev_speed
2000012b l     O .bss	00000001 s_ep1_in_busy
2000012c l     O .bss	00000001 s_setup_bRequest
2000012d l     O .bss	00000001 s_setup_bmReqType
20000130 l     O .bss	00000004 s_setup_in_ptr
20000134 l     O .bss	00000002 s_setup_in_remaining
20000136 l     O .bss	00000002 s_setup_out_received
20000138 l     O .bss	00000002 s_setup_wIndex
2000013a l     O .bss	00000002 s_setup_wLength
2000013c l     O .bss	00000002 s_setup_wValue
00000000 l    df *ABS*	00000000 ch32v30x_can.c
00000000 l    df *ABS*	00000000 ch32v30x_dbgmcu.c
00000000 l    df *ABS*	00000000 ch32v30x_gpio.c
00000000 l    df *ABS*	00000000 ch32v30x_misc.c
00000000 l    df *ABS*	00000000 ch32v30x_rcc.c
20000084 l     O .data	00000010 APBAHBPrescTable
200000fc l     O .data	00000004 ADCPrescTable
00000000 l    df *ABS*	00000000 ch32v30x_usart.c
00000000 l    df *ABS*	00000000 debug.c
20000144 l     O .bss	00000002 p_ms
20000146 l     O .bss	00000001 p_us
20000100 l     O .data	00000004 curbrk.5273
00000000 l    df *ABS*	00000000 memcpy.c
00000000 l    df *ABS*	00000000 printf.c
00000000 l    df *ABS*	00000000 findfp.c
000020d4 l     F .text	00000066 std
00000000 l    df *ABS*	00000000 fwalk.c
00000000 l    df *ABS*	00000000 nano-mallocr.c
00000000 l    df *ABS*	00000000 nano-vfprintf.c
000023ca l     F .text	00000026 __sfputc_r
00000000 l    df *ABS*	00000000 nano-vfprintf_i.c
00000000 l    df *ABS*	00000000 sbrkr.c
00000000 l    df *ABS*	00000000 stdio.c
00000000 l    df *ABS*	00000000 wbuf.c
00000000 l    df *ABS*	00000000 writer.c
00000000 l    df *ABS*	00000000 wsetup.c
00000000 l    df *ABS*	00000000 closer.c
00000000 l    df *ABS*	00000000 fflush.c
00000000 l    df *ABS*	00000000 lseekr.c
00000000 l    df *ABS*	00000000 makebuf.c
00000000 l    df *ABS*	00000000 memchr.c
00000000 l    df *ABS*	00000000 mlock.c
00000000 l    df *ABS*	00000000 nano-mallocr.c
00000000 l    df *ABS*	00000000 readr.c
00000000 l    df *ABS*	00000000 fstatr.c
00000000 l    df *ABS*	00000000 isattyr.c
00000000 l    df *ABS*	00000000 close.c
00000000 l    df *ABS*	00000000 fstat.c
00000000 l    df *ABS*	00000000 isatty.c
00000000 l    df *ABS*	00000000 lseek.c
00000000 l    df *ABS*	00000000 read.c
00000000 l    df *ABS*	00000000 usb_desc.c
00000000 l    df *ABS*	00000000 impure.c
20000094 l     O .data	00000060 impure_data
00000000 l    df *ABS*	00000000 reent.c
0000126e  w      .text	00000000 EXTI2_IRQHandler
000004a4 g     F .text	00000128 can_drv_open
0000126e  w      .text	00000000 TIM8_TRG_COM_IRQHandler
0000126e  w      .text	00000000 TIM8_CC_IRQHandler
00003108 g     F .text	00000028 _isatty_r
00002ee0 g     F .text	0000002c _lseek_r
0000126e  w      .text	00000000 UART8_IRQHandler
00003254 g     O .text	0000001a GSUSB_StrSerial
00000cd4 g     F .text	00000058 usbhs_dev_init
00002096 g     F .text	0000003e printf
200008f8 g       .data	00000000 __global_pointer$
000031fc g     O .text	00000012 GSUSB_DeviceDescr
000001c8 g     F .text	00000028 .hidden __riscv_save_8
0000126e  w      .text	00000000 TIM1_CC_IRQHandler
000008d6 g     F .text	0000000c can_drv_on_rx
00002b02 g     F .text	00000030 __sseek
0000218a g     F .text	00000066 __sinit
00002b38 g     F .text	000000be __swbuf_r
00000704 g     F .text	00000010 HardFault_Handler
00001892 g     F .text	000000d0 CAN_GetITStatus
00001962 g     F .text	00000094 CAN_ClearITPendingBit
00001332 g     F .text	000000ee CAN_FilterInit
00002144 g     F .text	00000046 __sfmoreglue
0000300c g     F .text	00000002 __malloc_unlock
00000214 g     F .text	0000000c .hidden __riscv_restore_3
0000126e  w      .text	00000000 TIM6_IRQHandler
0000126e  w      .text	00000000 SysTick_Handler
0000126e  w      .text	00000000 PVD_IRQHandler
0000126e  w      .text	00000000 SDIO_IRQHandler
0000126e  w      .text	00000000 TIM9_BRK_IRQHandler
00000200 g     F .text	00000020 .hidden __riscv_restore_10
0000126e  w      .text	00000000 DMA2_Channel8_IRQHandler
00000702 g     F .text	00000002 NMI_Handler
00001de0 g     F .text	00000024 RCC_USBHSPHYPLLALIVEcmd
0000126e  w      .text	00000000 CAN2_RX1_IRQHandler
0000126e  w      .text	00000000 EXTI3_IRQHandler
000001c8 g     F .text	00000028 .hidden __riscv_save_11
000019f6 g     F .text	0000000a DBGMCU_GetCHIPID
00000d76 g     F .text	00000012 usbhs_dev_rearm_bulk_out
000003b4 g     F .text	000000b8 can_drv_init
00000d88 g     F .text	000004e6 USBHS_IRQHandler
00003234 g     O .text	00000020 GSUSB_StrProd
00001ec6 g     F .text	0000000a USART_GetFlagStatus
0000126e  w      .text	00000000 DMA2_Channel9_IRQHandler
000030de g     F .text	0000002a _fstat_r
0000126e  w      .text	00000000 TIM10_CC_IRQHandler
20000838 g     O .bss	00000004 errno
20000120 g       .bss	00000000 _sbss
00000800 g       *ABS*	00000000 __stack_size
00001f30 g     F .text	00000054 USART_Printf_Init
0000126e  w      .text	00000000 USBFS_IRQHandler
00000666 g     F .text	0000008c can_drv_send
00000214 g     F .text	0000000c .hidden __riscv_restore_2
00001e04 g     F .text	00000016 RCC_USBCLK48MConfig
00001fe4 g     F .text	000000b2 memcpy
0000213a g     F .text	0000000a _cleanup_r
00001ac8 g     F .text	000000d6 GPIO_PinRemapConfig
00001420 g     F .text	00000038 CAN_SlaveStartBank
0000126e  w      .text	00000000 EXTI0_IRQHandler
0000126e  w      .text	00000000 I2C2_EV_IRQHandler
0000126e  w      .text	00000000 TIM10_TRG_COM_IRQHandler
200000f8 g     O .data	00000004 SystemCoreClock
0000321c g     O .text	00000016 GSUSB_StrMfr
0000313c g     F .text	0000000c _fstat
00000004 g       .init	00000000 _einit
00001dac g     F .text	0000001a RCC_USBHSPLLCLKConfig
00003210 g     O .text	0000000a GSUSB_QualifierDescr
00001d38 g     F .text	0000001e RCC_APB2PeriphClockCmd
000001c0 g     F .text	00000030 .hidden __riscv_save_12
0000126e  w      .text	00000000 CAN2_SCE_IRQHandler
0000126e  w      .text	00000000 ADC1_2_IRQHandler
00001a00 g     F .text	000000c0 GPIO_Init
0000126e  w      .text	00000000 Break_Point_Handler
00000200 g     F .text	00000020 .hidden __riscv_restore_11
20000140 g     O .bss	00000004 NVIC_Priority_Group
0000126e  w      .text	00000000 SPI1_IRQHandler
00001ea8 g     F .text	00000016 USART_Cmd
00002a64 g     F .text	0000002a _sbrk_r
0000126e  w      .text	00000000 TAMPER_IRQHandler
000001f0 g     F .text	0000000c .hidden __riscv_save_1
00000214 g     F .text	0000000c .hidden __riscv_restore_0
00000962 g     F .text	00000012 led_set_can_open
000030b2 g     F .text	0000002c _read_r
000001d6 g     F .text	0000001a .hidden __riscv_save_7
000006fa g     F .text	00000008 CAN2_RX0_IRQHandler
0000126e  w      .text	00000000 TIM8_UP_IRQHandler
00001d56 g     F .text	0000001e RCC_APB1PeriphClockCmd
0000126e  w      .text	00000000 Ecall_M_Mode_Handler
20007800 g       .stack	00000000 _heap_end
00003148 g     F .text	0000000c _isatty
00001efa g     F .text	00000036 Delay_Us
20000118 g     O .data	00000004 _global_impure_ptr
0000020a g     F .text	00000016 .hidden __riscv_restore_5
0000048c g     F .text	00000018 can_drv_is_open
0000126e  w      .text	00000000 DMA2_Channel2_IRQHandler
00001d1a g     F .text	0000001e RCC_AHBPeriphClockCmd
0000126e  w      .text	00000000 DMA1_Channel4_IRQHandler
00001fbe g     F .text	00000026 _sbrk
000012fa g     F .text	00000038 CAN_DeInit
0000126e  w      .text	00000000 TIM9_UP_IRQHandler
0000020a g     F .text	00000016 .hidden __riscv_restore_6
0000126e  w      .text	00000000 USART3_IRQHandler
00000ca2 g     F .text	00000032 usbhs_dev_rcc_init
0000126e  w      .text	00000000 RTC_IRQHandler
2000083c g       .bss	00000000 _ebss
0000126e  w      .text	00000000 DMA1_Channel7_IRQHandler
00001dc6 g     F .text	0000001a RCC_USBHSPLLCKREFCLKConfig
0000126e  w      .text	00000000 CAN1_RX1_IRQHandler
00001ed0 g     F .text	0000002a Delay_Init
0000126e  w      .text	00000000 DVP_IRQHandler
0000126e  w      .text	00000000 UART5_IRQHandler
00000d2c g     F .text	0000004a usbhs_dev_send_frame
00001ac0 g     F .text	00000004 GPIO_SetBits
0000126e  w      .text	00000000 TIM4_IRQHandler
000001c8 g     F .text	00000028 .hidden __riscv_save_9
0000126e  w      .text	00000000 DMA2_Channel1_IRQHandler
000032bc g     O .text	00000020 __sf_fake_stderr
000001d6 g     F .text	0000001a .hidden __riscv_save_4
0000126e  w      .text	00000000 I2C1_EV_IRQHandler
00001ba4 g     F .text	00000176 RCC_GetClocksFreq
00000898 g     F .text	00000034 gs_can_handle_bulk_out
0000126e  w      .text	00000000 DMA1_Channel6_IRQHandler
000023f0 g     F .text	00000040 __sfputs_r
0000126e  w      .text	00000000 UART4_IRQHandler
0000126e  w      .text	00000000 DMA2_Channel4_IRQHandler
00002ff2 g     F .text	00000018 memchr
00001e1a g     F .text	0000008e USART_Init
0000300e g     F .text	000000a4 _free_r
0000126e  w      .text	00000000 TIM3_IRQHandler
0000126e  w      .text	00000000 RCC_IRQHandler
000017de g     F .text	0000008c CAN_Receive
000001f0 g     F .text	0000000c .hidden __riscv_save_3
0000126e  w      .text	00000000 TIM1_TRG_COM_IRQHandler
00001458 g     F .text	000002ca CAN_Init
000031bc g     O .text	00000020 GSUSB_CfgDescr_FS
0000126e  w      .text	00000000 DMA1_Channel1_IRQHandler
00000000 g       .init	00000000 _start
0000126e  w      .text	00000000 DMA2_Channel7_IRQHandler
20000034 g     O .data	00000010 AHBPrescTable
00003154 g     F .text	0000000c _lseek
0000126e  w      .text	00000000 EXTI15_10_IRQHandler
000008cc g     F .text	0000000a gs_can_handle_bulk_in_complete
00001d92 g     F .text	0000001a RCC_USBHSConfig
00001ac4 g     F .text	00000004 GPIO_ResetBits
0000126e  w      .text	00000000 TIM7_IRQHandler
00002d22 g     F .text	00000028 _close_r
0000126e  w      .text	00000000 CAN2_TX_IRQHandler
20000000 g       .dalign	00000000 _data_vma
0000126e  w      .text	00000000 TIM5_IRQHandler
00001880 g     F .text	00000012 CAN_ITConfig
00002c24 g     F .text	000000fe __swsetup_r
0000126e  w      .text	00000000 EXTI9_5_IRQHandler
000021f0 g     F .text	0000009c __sfp
20000044 g     O .data	00000020 GSUSB_OtherSpeedCfg_FS
000001c8 g     F .text	00000028 .hidden __riscv_save_10
00002a8e g     F .text	0000002c __sread
0000126e  w      .text	00000000 ETH_WKUP_IRQHandler
20000064 g     O .data	00000020 GSUSB_OtherSpeedCfg_HS
0000300a g     F .text	00000002 __malloc_lock
0000020a g     F .text	00000016 .hidden __riscv_restore_4
00000200 g     F .text	00000020 .hidden __riscv_restore_8
00002e7a g     F .text	00000066 _fflush_r
000001d6 g     F .text	0000001a .hidden __riscv_save_6
0000126e  w      .text	00000000 SPI2_IRQHandler
000032dc g     O .text	00000020 __sf_fake_stdin
00000220 g     F .text	000000a8 memset
00000200 g     F .text	00000020 .hidden __riscv_restore_9
0000020a g     F .text	00000016 .hidden __riscv_restore_7
00000986 g     F .text	0000004a main
000031dc g     O .text	00000020 GSUSB_CfgDescr_HS
0000126e  w      .text	00000000 TIM10_BRK_IRQHandler
0000126e  w      .text	00000000 TIM9_CC_IRQHandler
00000974 g     F .text	00000012 led_set_identify
00002b32 g     F .text	00000006 __sclose
0000126e  w      .text	00000000 DMA2_Channel5_IRQHandler
000022f6 g     F .text	000000d4 _malloc_r
0000126e  w      .text	00000000 DMA1_Channel5_IRQHandler
0000186a g     F .text	00000016 CAN_MessagePending
0000126e  w      .text	00000000 EXTI4_IRQHandler
000006f2 g     F .text	00000008 USB_LP_CAN1_RX0_IRQHandler
000009d0 g     F .text	000000f8 SystemInit
0000126e  w      .text	00000000 RNG_IRQHandler
20000114 g     O .data	00000004 GSUSB_StrLang
00002096 g     F .text	0000003e iprintf
0000126e  w      .text	00000000 USB_HP_CAN1_TX_IRQHandler
00000000 g       .init	00000000 _sinit
00002bf6 g     F .text	0000002e _write_r
0000126e  w      .text	00000000 DMA1_Channel3_IRQHandler
0000126e  w      .text	00000000 ETH_IRQHandler
000026b8 g     F .text	0000010c _printf_common
20000104 g     O .data	00000004 _impure_ptr
0000126e  w      .text	00000000 TIM1_UP_IRQHandler
00002d4a g     F .text	00000130 __sflush_r
0000046c g     F .text	00000020 can_drv_set_bittiming
0000126e  w      .text	00000000 WWDG_IRQHandler
0000126e  w      .text	00000000 USBHSWakeup_IRQHandler
0000126e  w      .text	00000000 DMA2_Channel11_IRQHandler
00001d74 g     F .text	0000001e RCC_APB1PeriphResetCmd
0000126e  w      .text	00000000 Ecall_U_Mode_Handler
000007aa g     F .text	0000005e gs_can_handle_vendor_setup_in
0000126e  w      .text	00000000 DMA2_Channel6_IRQHandler
0000126e  w      .text	00000000 TIM2_IRQHandler
00000912 g     F .text	00000050 led_init
20008000 g       .stack	00000000 _eusrstack
000001f0 g     F .text	0000000c .hidden __riscv_save_2
0000126e  w      .text	00000000 SW_Handler
000005cc g     F .text	0000009a can_drv_close
0000126e  w      .text	00000000 TIM1_BRK_IRQHandler
00002f0c g     F .text	00000056 __swhatbuf_r
00001ebe g     F .text	00000008 USART_SendData
0000126e  w      .text	00000000 DMA2_Channel10_IRQHandler
0000126e  w      .text	00000000 EXTI1_IRQHandler
000001d6 g     F .text	0000001a .hidden __riscv_save_5
00000794 g     F .text	00000016 gs_can_on_enum
00001f84 g     F .text	0000003a _write
20000120 g       .data	00000000 _edata
2000083c g       .bss	00000000 _end
0000126e  w      .text	00000000 RTCAlarm_IRQHandler
00003358 g       .dlalign	00000000 _data_lma
0000126e  w      .text	00000000 TIM10_UP_IRQHandler
0000126e  w      .text	00000000 TIM9_TRG_COM_IRQHandler
0000126e  w      .text	00000000 UART7_IRQHandler
0000126e  w      .text	00000000 USART2_IRQHandler
0000126e  w      .text	00000000 UART6_IRQHandler
00002aba g     F .text	00000048 __swrite
00002430 g     F .text	00000288 _vfiprintf_r
0000228c g     F .text	0000006a _fwalk_reent
00000ac8 g     F .text	0000012e SystemCoreClockUpdate
0000126e  w      .text	00000000 I2C2_ER_IRQHandler
0000126e  w      .text	00000000 DMA1_Channel2_IRQHandler
0000078a g     F .text	0000000a gs_can_init
000032fc g     O .text	00000020 __sf_fake_stdout
000001fc g     F .text	00000024 .hidden __riscv_restore_12
0000126e  w      .text	00000000 TIM8_BRK_IRQHandler
00003160 g     F .text	0000000c _read
00001270  w      .text	00000000 handle_reset
0000126e  w      .text	00000000 CAN1_SCE_IRQHandler
0000126e  w      .text	00000000 FLASH_IRQHandler
000001f0 g     F .text	0000000c .hidden __riscv_save_0
0000126e  w      .text	00000000 USART1_IRQHandler
00002f62 g     F .text	00000090 __smakebuf_r
000027c4 g     F .text	000002a0 _printf_i
0000126e  w      .text	00000000 SPI3_IRQHandler
2000014c g     O .bss	00000004 __malloc_sbrk_start
0000126e  w      .text	00000000 I2C1_ER_IRQHandler
00001b9e g     F .text	00000006 NVIC_PriorityGroupConfig
20000148 g     O .bss	00000004 __malloc_free_list
00000214 g     F .text	0000000c .hidden __riscv_restore_1
00002430 g     F .text	00000288 _vfprintf_r
00000808 g     F .text	00000090 gs_can_handle_vendor_setup_out
00001722 g     F .text	000000bc CAN_Transmit
0000126e  w      .text	00000000 USBWakeUp_IRQHandler
00003130 g     F .text	0000000c _close
0000126e  w      .text	00000000 DMA2_Channel3_IRQHandler



Disassembly of section .init:

00000000 <_sinit>:
   0:	2700106f          	j	1270 <handle_reset>

Disassembly of section .vector:

00000004 <_vector_base>:
	...
   c:	0702                	c.slli64	a4
   e:	0000                	unimp
  10:	0704                	addi	s1,sp,896
  12:	0000                	unimp
  14:	0000                	unimp
  16:	0000                	unimp
  18:	126e                	slli	tp,tp,0x3b
	...
  22:	0000                	unimp
  24:	126e                	slli	tp,tp,0x3b
  26:	0000                	unimp
  28:	126e                	slli	tp,tp,0x3b
	...
  32:	0000                	unimp
  34:	126e                	slli	tp,tp,0x3b
  36:	0000                	unimp
  38:	0000                	unimp
  3a:	0000                	unimp
  3c:	126e                	slli	tp,tp,0x3b
  3e:	0000                	unimp
  40:	0000                	unimp
  42:	0000                	unimp
  44:	126e                	slli	tp,tp,0x3b
  46:	0000                	unimp
  48:	126e                	slli	tp,tp,0x3b
  4a:	0000                	unimp
  4c:	126e                	slli	tp,tp,0x3b
  4e:	0000                	unimp
  50:	126e                	slli	tp,tp,0x3b
  52:	0000                	unimp
  54:	126e                	slli	tp,tp,0x3b
  56:	0000                	unimp
  58:	126e                	slli	tp,tp,0x3b
  5a:	0000                	unimp
  5c:	126e                	slli	tp,tp,0x3b
  5e:	0000                	unimp
  60:	126e                	slli	tp,tp,0x3b
  62:	0000                	unimp
  64:	126e                	slli	tp,tp,0x3b
  66:	0000                	unimp
  68:	126e                	slli	tp,tp,0x3b
  6a:	0000                	unimp
  6c:	126e                	slli	tp,tp,0x3b
  6e:	0000                	unimp
  70:	126e                	slli	tp,tp,0x3b
  72:	0000                	unimp
  74:	126e                	slli	tp,tp,0x3b
  76:	0000                	unimp
  78:	126e                	slli	tp,tp,0x3b
  7a:	0000                	unimp
  7c:	126e                	slli	tp,tp,0x3b
  7e:	0000                	unimp
  80:	126e                	slli	tp,tp,0x3b
  82:	0000                	unimp
  84:	126e                	slli	tp,tp,0x3b
  86:	0000                	unimp
  88:	126e                	slli	tp,tp,0x3b
  8a:	0000                	unimp
  8c:	126e                	slli	tp,tp,0x3b
  8e:	0000                	unimp
  90:	126e                	slli	tp,tp,0x3b
  92:	0000                	unimp
  94:	06f2                	slli	a3,a3,0x1c
  96:	0000                	unimp
  98:	126e                	slli	tp,tp,0x3b
  9a:	0000                	unimp
  9c:	126e                	slli	tp,tp,0x3b
  9e:	0000                	unimp
  a0:	126e                	slli	tp,tp,0x3b
  a2:	0000                	unimp
  a4:	126e                	slli	tp,tp,0x3b
  a6:	0000                	unimp
  a8:	126e                	slli	tp,tp,0x3b
  aa:	0000                	unimp
  ac:	126e                	slli	tp,tp,0x3b
  ae:	0000                	unimp
  b0:	126e                	slli	tp,tp,0x3b
  b2:	0000                	unimp
  b4:	126e                	slli	tp,tp,0x3b
  b6:	0000                	unimp
  b8:	126e                	slli	tp,tp,0x3b
  ba:	0000                	unimp
  bc:	126e                	slli	tp,tp,0x3b
  be:	0000                	unimp
  c0:	126e                	slli	tp,tp,0x3b
  c2:	0000                	unimp
  c4:	126e                	slli	tp,tp,0x3b
  c6:	0000                	unimp
  c8:	126e                	slli	tp,tp,0x3b
  ca:	0000                	unimp
  cc:	126e                	slli	tp,tp,0x3b
  ce:	0000                	unimp
  d0:	126e                	slli	tp,tp,0x3b
  d2:	0000                	unimp
  d4:	126e                	slli	tp,tp,0x3b
  d6:	0000                	unimp
  d8:	126e                	slli	tp,tp,0x3b
  da:	0000                	unimp
  dc:	126e                	slli	tp,tp,0x3b
  de:	0000                	unimp
  e0:	126e                	slli	tp,tp,0x3b
  e2:	0000                	unimp
  e4:	126e                	slli	tp,tp,0x3b
  e6:	0000                	unimp
  e8:	126e                	slli	tp,tp,0x3b
  ea:	0000                	unimp
  ec:	126e                	slli	tp,tp,0x3b
  ee:	0000                	unimp
  f0:	126e                	slli	tp,tp,0x3b
  f2:	0000                	unimp
  f4:	126e                	slli	tp,tp,0x3b
  f6:	0000                	unimp
  f8:	126e                	slli	tp,tp,0x3b
  fa:	0000                	unimp
  fc:	126e                	slli	tp,tp,0x3b
  fe:	0000                	unimp
 100:	126e                	slli	tp,tp,0x3b
 102:	0000                	unimp
 104:	0000                	unimp
 106:	0000                	unimp
 108:	126e                	slli	tp,tp,0x3b
 10a:	0000                	unimp
 10c:	126e                	slli	tp,tp,0x3b
 10e:	0000                	unimp
 110:	126e                	slli	tp,tp,0x3b
 112:	0000                	unimp
 114:	126e                	slli	tp,tp,0x3b
 116:	0000                	unimp
 118:	126e                	slli	tp,tp,0x3b
 11a:	0000                	unimp
 11c:	126e                	slli	tp,tp,0x3b
 11e:	0000                	unimp
 120:	126e                	slli	tp,tp,0x3b
 122:	0000                	unimp
 124:	126e                	slli	tp,tp,0x3b
 126:	0000                	unimp
 128:	126e                	slli	tp,tp,0x3b
 12a:	0000                	unimp
 12c:	126e                	slli	tp,tp,0x3b
 12e:	0000                	unimp
 130:	126e                	slli	tp,tp,0x3b
 132:	0000                	unimp
 134:	126e                	slli	tp,tp,0x3b
 136:	0000                	unimp
 138:	126e                	slli	tp,tp,0x3b
 13a:	0000                	unimp
 13c:	126e                	slli	tp,tp,0x3b
 13e:	0000                	unimp
 140:	126e                	slli	tp,tp,0x3b
 142:	0000                	unimp
 144:	06fa                	slli	a3,a3,0x1e
 146:	0000                	unimp
 148:	126e                	slli	tp,tp,0x3b
 14a:	0000                	unimp
 14c:	126e                	slli	tp,tp,0x3b
 14e:	0000                	unimp
 150:	126e                	slli	tp,tp,0x3b
 152:	0000                	unimp
 154:	126e                	slli	tp,tp,0x3b
 156:	0000                	unimp
 158:	0d88                	addi	a0,sp,720
 15a:	0000                	unimp
 15c:	126e                	slli	tp,tp,0x3b
 15e:	0000                	unimp
 160:	126e                	slli	tp,tp,0x3b
 162:	0000                	unimp
 164:	126e                	slli	tp,tp,0x3b
 166:	0000                	unimp
 168:	126e                	slli	tp,tp,0x3b
 16a:	0000                	unimp
 16c:	126e                	slli	tp,tp,0x3b
 16e:	0000                	unimp
 170:	126e                	slli	tp,tp,0x3b
 172:	0000                	unimp
 174:	126e                	slli	tp,tp,0x3b
 176:	0000                	unimp
 178:	126e                	slli	tp,tp,0x3b
 17a:	0000                	unimp
 17c:	126e                	slli	tp,tp,0x3b
 17e:	0000                	unimp
 180:	126e                	slli	tp,tp,0x3b
 182:	0000                	unimp
 184:	126e                	slli	tp,tp,0x3b
 186:	0000                	unimp
 188:	126e                	slli	tp,tp,0x3b
 18a:	0000                	unimp
 18c:	126e                	slli	tp,tp,0x3b
 18e:	0000                	unimp
 190:	126e                	slli	tp,tp,0x3b
 192:	0000                	unimp
 194:	126e                	slli	tp,tp,0x3b
 196:	0000                	unimp
 198:	126e                	slli	tp,tp,0x3b
 19a:	0000                	unimp
 19c:	126e                	slli	tp,tp,0x3b
 19e:	0000                	unimp
 1a0:	126e                	slli	tp,tp,0x3b
	...

Disassembly of section .text:

000001c0 <__riscv_save_12>:
     1c0:	7139                	addi	sp,sp,-64
     1c2:	4301                	li	t1,0
     1c4:	c66e                	sw	s11,12(sp)
     1c6:	a019                	j	1cc <__riscv_save_10+0x4>

000001c8 <__riscv_save_10>:
     1c8:	7139                	addi	sp,sp,-64
     1ca:	5341                	li	t1,-16
     1cc:	c86a                	sw	s10,16(sp)
     1ce:	ca66                	sw	s9,20(sp)
     1d0:	cc62                	sw	s8,24(sp)
     1d2:	ce5e                	sw	s7,28(sp)
     1d4:	a019                	j	1da <__riscv_save_4+0x4>

000001d6 <__riscv_save_4>:
     1d6:	7139                	addi	sp,sp,-64
     1d8:	5301                	li	t1,-32
     1da:	d05a                	sw	s6,32(sp)
     1dc:	d256                	sw	s5,36(sp)
     1de:	d452                	sw	s4,40(sp)
     1e0:	d64e                	sw	s3,44(sp)
     1e2:	d84a                	sw	s2,48(sp)
     1e4:	da26                	sw	s1,52(sp)
     1e6:	dc22                	sw	s0,56(sp)
     1e8:	de06                	sw	ra,60(sp)
     1ea:	40610133          	sub	sp,sp,t1
     1ee:	8282                	jr	t0

000001f0 <__riscv_save_0>:
     1f0:	1141                	addi	sp,sp,-16
     1f2:	c04a                	sw	s2,0(sp)
     1f4:	c226                	sw	s1,4(sp)
     1f6:	c422                	sw	s0,8(sp)
     1f8:	c606                	sw	ra,12(sp)
     1fa:	8282                	jr	t0

000001fc <__riscv_restore_12>:
     1fc:	4db2                	lw	s11,12(sp)
     1fe:	0141                	addi	sp,sp,16

00000200 <__riscv_restore_10>:
     200:	4d02                	lw	s10,0(sp)
     202:	4c92                	lw	s9,4(sp)
     204:	4c22                	lw	s8,8(sp)
     206:	4bb2                	lw	s7,12(sp)
     208:	0141                	addi	sp,sp,16

0000020a <__riscv_restore_4>:
     20a:	4b02                	lw	s6,0(sp)
     20c:	4a92                	lw	s5,4(sp)
     20e:	4a22                	lw	s4,8(sp)
     210:	49b2                	lw	s3,12(sp)
     212:	0141                	addi	sp,sp,16

00000214 <__riscv_restore_0>:
     214:	4902                	lw	s2,0(sp)
     216:	4492                	lw	s1,4(sp)
     218:	4422                	lw	s0,8(sp)
     21a:	40b2                	lw	ra,12(sp)
     21c:	0141                	addi	sp,sp,16
     21e:	8082                	ret

00000220 <memset>:
     220:	433d                	li	t1,15
     222:	872a                	mv	a4,a0
     224:	02c37363          	bgeu	t1,a2,24a <memset+0x2a>
     228:	00f77793          	andi	a5,a4,15
     22c:	efbd                	bnez	a5,2aa <memset+0x8a>
     22e:	e5ad                	bnez	a1,298 <memset+0x78>
     230:	ff067693          	andi	a3,a2,-16
     234:	8a3d                	andi	a2,a2,15
     236:	96ba                	add	a3,a3,a4
     238:	c30c                	sw	a1,0(a4)
     23a:	c34c                	sw	a1,4(a4)
     23c:	c70c                	sw	a1,8(a4)
     23e:	c74c                	sw	a1,12(a4)
     240:	0741                	addi	a4,a4,16
     242:	fed76be3          	bltu	a4,a3,238 <memset+0x18>
     246:	e211                	bnez	a2,24a <memset+0x2a>
     248:	8082                	ret
     24a:	40c306b3          	sub	a3,t1,a2
     24e:	068a                	slli	a3,a3,0x2
     250:	00000297          	auipc	t0,0x0
     254:	9696                	add	a3,a3,t0
     256:	00a68067          	jr	10(a3)
     25a:	00b70723          	sb	a1,14(a4)
     25e:	00b706a3          	sb	a1,13(a4)
     262:	00b70623          	sb	a1,12(a4)
     266:	00b705a3          	sb	a1,11(a4)
     26a:	00b70523          	sb	a1,10(a4)
     26e:	00b704a3          	sb	a1,9(a4)
     272:	00b70423          	sb	a1,8(a4)
     276:	00b703a3          	sb	a1,7(a4)
     27a:	00b70323          	sb	a1,6(a4)
     27e:	00b702a3          	sb	a1,5(a4)
     282:	00b70223          	sb	a1,4(a4)
     286:	00b701a3          	sb	a1,3(a4)
     28a:	00b70123          	sb	a1,2(a4)
     28e:	00b700a3          	sb	a1,1(a4)
     292:	00b70023          	sb	a1,0(a4)
     296:	8082                	ret
     298:	0ff5f593          	andi	a1,a1,255
     29c:	00859693          	slli	a3,a1,0x8
     2a0:	8dd5                	or	a1,a1,a3
     2a2:	01059693          	slli	a3,a1,0x10
     2a6:	8dd5                	or	a1,a1,a3
     2a8:	b761                	j	230 <memset+0x10>
     2aa:	00279693          	slli	a3,a5,0x2
     2ae:	00000297          	auipc	t0,0x0
     2b2:	9696                	add	a3,a3,t0
     2b4:	8286                	mv	t0,ra
     2b6:	fa8680e7          	jalr	-88(a3)
     2ba:	8096                	mv	ra,t0
     2bc:	17c1                	addi	a5,a5,-16
     2be:	8f1d                	sub	a4,a4,a5
     2c0:	963e                	add	a2,a2,a5
     2c2:	f8c374e3          	bgeu	t1,a2,24a <memset+0x2a>
     2c6:	b7a5                	j	22e <memset+0xe>

000002c8 <apply_filter_accept_all>:
     2c8:	f29ff2ef          	jal	t0,1f0 <__riscv_save_0>
     2cc:	1101                	addi	sp,sp,-32
     2ce:	c602                	sw	zero,12(sp)
     2d0:	c802                	sw	zero,16(sp)
     2d2:	ca02                	sw	zero,20(sp)
     2d4:	cc02                	sw	zero,24(sp)
     2d6:	c111                	beqz	a0,2da <apply_filter_accept_all+0x12>
     2d8:	451d                	li	a0,7
     2da:	4785                	li	a5,1
     2dc:	00a10b23          	sb	a0,22(sp)
     2e0:	00f10c23          	sb	a5,24(sp)
     2e4:	0068                	addi	a0,sp,12
     2e6:	4785                	li	a5,1
     2e8:	ce3e                	sw	a5,28(sp)
     2ea:	048010ef          	jal	ra,1332 <CAN_FilterInit>
     2ee:	6105                	addi	sp,sp,32
     2f0:	b715                	j	214 <__riscv_restore_0>

000002f2 <can_rx0_isr_body>:
     2f2:	ed7ff2ef          	jal	t0,1c8 <__riscv_save_10>
     2f6:	00251713          	slli	a4,a0,0x2
     2fa:	81018793          	addi	a5,gp,-2032 # 20000108 <s_can>
     2fe:	97ba                	add	a5,a5,a4
     300:	4380                	lw	s0,0(a5)
     302:	7179                	addi	sp,sp,-48
     304:	892a                	mv	s2,a0
     306:	4589                	li	a1,2
     308:	8522                	mv	a0,s0
     30a:	588010ef          	jal	ra,1892 <CAN_GetITStatus>
     30e:	c505                	beqz	a0,336 <can_rx0_isr_body+0x44>
     310:	200004b7          	lui	s1,0x20000
     314:	59fd                	li	s3,-1
     316:	4a11                	li	s4,4
     318:	14fd                	addi	s1,s1,-1
     31a:	80000ab7          	lui	s5,0x80000
     31e:	4b09                	li	s6,2
     320:	40000bb7          	lui	s7,0x40000
     324:	4581                	li	a1,0
     326:	8522                	mv	a0,s0
     328:	542010ef          	jal	ra,186a <CAN_MessagePending>
     32c:	e519                	bnez	a0,33a <can_rx0_isr_body+0x48>
     32e:	4589                	li	a1,2
     330:	8522                	mv	a0,s0
     332:	630010ef          	jal	ra,1962 <CAN_ClearITPendingBit>
     336:	6145                	addi	sp,sp,48
     338:	b5e1                	j	200 <__riscv_restore_10>
     33a:	0030                	addi	a2,sp,8
     33c:	4581                	li	a1,0
     33e:	8522                	mv	a0,s0
     340:	ce02                	sw	zero,28(sp)
     342:	d002                	sw	zero,32(sp)
     344:	d202                	sw	zero,36(sp)
     346:	d402                	sw	zero,40(sp)
     348:	d602                	sw	zero,44(sp)
     34a:	494010ef          	jal	ra,17de <CAN_Receive>
     34e:	01014783          	lbu	a5,16(sp)
     352:	ce4e                	sw	s3,28(sp)
     354:	05479663          	bne	a5,s4,3a0 <can_rx0_isr_body+0xae>
     358:	47b2                	lw	a5,12(sp)
     35a:	8fe5                	and	a5,a5,s1
     35c:	0157e7b3          	or	a5,a5,s5
     360:	01114703          	lbu	a4,17(sp)
     364:	d03e                	sw	a5,32(sp)
     366:	01671563          	bne	a4,s6,370 <can_rx0_isr_body+0x7e>
     36a:	0177e7b3          	or	a5,a5,s7
     36e:	d03e                	sw	a5,32(sp)
     370:	01214783          	lbu	a5,18(sp)
     374:	4721                	li	a4,8
     376:	00f77363          	bgeu	a4,a5,37c <can_rx0_isr_body+0x8a>
     37a:	47a1                	li	a5,8
     37c:	0878                	addi	a4,sp,28
     37e:	0ff7f613          	andi	a2,a5,255
     382:	02f10223          	sb	a5,36(sp)
     386:	032102a3          	sb	s2,37(sp)
     38a:	02010323          	sb	zero,38(sp)
     38e:	0034                	addi	a3,sp,8
     390:	4781                	li	a5,0
     392:	853a                	mv	a0,a4
     394:	0685                	addi	a3,a3,1
     396:	0705                	addi	a4,a4,1
     398:	00f61863          	bne	a2,a5,3a8 <can_rx0_isr_body+0xb6>
     39c:	2b2d                	jal	8d6 <can_drv_on_rx>
     39e:	b759                	j	324 <can_rx0_isr_body+0x32>
     3a0:	47a2                	lw	a5,8(sp)
     3a2:	7ff7f793          	andi	a5,a5,2047
     3a6:	bf6d                	j	360 <can_rx0_isr_body+0x6e>
     3a8:	26ac                	lbu	a1,10(a3)
     3aa:	0785                	addi	a5,a5,1
     3ac:	0ff7f793          	andi	a5,a5,255
     3b0:	b72c                	sb	a1,11(a4)
     3b2:	b7cd                	j	394 <can_rx0_isr_body+0xa2>

000003b4 <can_drv_init>:
     3b4:	e23ff2ef          	jal	t0,1d6 <__riscv_save_4>
     3b8:	1141                	addi	sp,sp,-16
     3ba:	4585                	li	a1,1
     3bc:	4525                	li	a0,9
     3be:	17b010ef          	jal	ra,1d38 <RCC_APB2PeriphClockCmd>
     3c2:	4585                	li	a1,1
     3c4:	06000537          	lui	a0,0x6000
     3c8:	18f010ef          	jal	ra,1d56 <RCC_APB1PeriphClockCmd>
     3cc:	4585                	li	a1,1
     3ce:	001d4537          	lui	a0,0x1d4
     3d2:	40011437          	lui	s0,0x40011
     3d6:	c202                	sw	zero,4(sp)
     3d8:	c402                	sw	zero,8(sp)
     3da:	c602                	sw	zero,12(sp)
     3dc:	6ec010ef          	jal	ra,1ac8 <GPIO_PinRemapConfig>
     3e0:	20000793          	li	a5,512
     3e4:	49e1                	li	s3,24
     3e6:	490d                	li	s2,3
     3e8:	004c                	addi	a1,sp,4
     3ea:	c0040513          	addi	a0,s0,-1024 # 40010c00 <_eusrstack+0x20008c00>
     3ee:	827c                	sh	a5,4(sp)
     3f0:	c64e                	sw	s3,12(sp)
     3f2:	c44a                	sw	s2,8(sp)
     3f4:	60c010ef          	jal	ra,1a00 <GPIO_Init>
     3f8:	10000793          	li	a5,256
     3fc:	04800493          	li	s1,72
     400:	004c                	addi	a1,sp,4
     402:	c0040513          	addi	a0,s0,-1024
     406:	827c                	sh	a5,4(sp)
     408:	c626                	sw	s1,12(sp)
     40a:	5f6010ef          	jal	ra,1a00 <GPIO_Init>
     40e:	6789                	lui	a5,0x2
     410:	004c                	addi	a1,sp,4
     412:	c0040513          	addi	a0,s0,-1024
     416:	827c                	sh	a5,4(sp)
     418:	c64e                	sw	s3,12(sp)
     41a:	c44a                	sw	s2,8(sp)
     41c:	00011323          	sh	zero,6(sp)
     420:	5e0010ef          	jal	ra,1a00 <GPIO_Init>
     424:	6785                	lui	a5,0x1
     426:	004c                	addi	a1,sp,4
     428:	c0040513          	addi	a0,s0,-1024
     42c:	827c                	sh	a5,4(sp)
     42e:	c626                	sw	s1,12(sp)
     430:	5d0010ef          	jal	ra,1a00 <GPIO_Init>
     434:	451d                	li	a0,7
     436:	7eb000ef          	jal	ra,1420 <CAN_SlaveStartBank>
     43a:	648d                	lui	s1,0x3
     43c:	85818913          	addi	s2,gp,-1960 # 20000150 <s_bt>
     440:	16c48593          	addi	a1,s1,364 # 316c <s_bt_default>
     444:	4651                	li	a2,20
     446:	85818513          	addi	a0,gp,-1960 # 20000150 <s_bt>
     44a:	39b010ef          	jal	ra,1fe4 <memcpy>
     44e:	82818413          	addi	s0,gp,-2008 # 20000120 <_edata>
     452:	4651                	li	a2,20
     454:	16c48593          	addi	a1,s1,364
     458:	01490513          	addi	a0,s2,20
     45c:	00040023          	sb	zero,0(s0)
     460:	385010ef          	jal	ra,1fe4 <memcpy>
     464:	000400a3          	sb	zero,1(s0)
     468:	0141                	addi	sp,sp,16
     46a:	b345                	j	20a <__riscv_restore_4>

0000046c <can_drv_set_bittiming>:
     46c:	4785                	li	a5,1
     46e:	00a7ee63          	bltu	a5,a0,48a <can_drv_set_bittiming+0x1e>
     472:	d7fff2ef          	jal	t0,1f0 <__riscv_save_0>
     476:	47d1                	li	a5,20
     478:	02f50533          	mul	a0,a0,a5
     47c:	85818793          	addi	a5,gp,-1960 # 20000150 <s_bt>
     480:	4651                	li	a2,20
     482:	953e                	add	a0,a0,a5
     484:	361010ef          	jal	ra,1fe4 <memcpy>
     488:	b371                	j	214 <__riscv_restore_0>
     48a:	8082                	ret

0000048c <can_drv_is_open>:
     48c:	4785                	li	a5,1
     48e:	00a7e963          	bltu	a5,a0,4a0 <can_drv_is_open+0x14>
     492:	82818793          	addi	a5,gp,-2008 # 20000120 <_edata>
     496:	97aa                	add	a5,a5,a0
     498:	2388                	lbu	a0,0(a5)
     49a:	0ff57513          	andi	a0,a0,255
     49e:	8082                	ret
     4a0:	4501                	li	a0,0
     4a2:	8082                	ret

000004a4 <can_drv_open>:
     4a4:	4785                	li	a5,1
     4a6:	12a7e263          	bltu	a5,a0,5ca <can_drv_open+0x126>
     4aa:	d47ff2ef          	jal	t0,1f0 <__riscv_save_0>
     4ae:	1101                	addi	sp,sp,-32
     4b0:	842a                	mv	s0,a0
     4b2:	4671                	li	a2,28
     4b4:	84ae                	mv	s1,a1
     4b6:	850a                	mv	a0,sp
     4b8:	4581                	li	a1,0
     4ba:	339d                	jal	220 <memset>
     4bc:	47d1                	li	a5,20
     4be:	02f40733          	mul	a4,s0,a5
     4c2:	85818793          	addi	a5,gp,-1960 # 20000150 <s_bt>
     4c6:	4685                	li	a3,1
     4c8:	97ba                	add	a5,a5,a4
     4ca:	43d8                	lw	a4,4(a5)
     4cc:	4390                	lw	a2,0(a5)
     4ce:	4788                	lw	a0,8(a5)
     4d0:	4b8c                	lw	a1,16(a5)
     4d2:	963a                	add	a2,a2,a4
     4d4:	47d8                	lw	a4,12(a5)
     4d6:	c611                	beqz	a2,4e2 <can_drv_open+0x3e>
     4d8:	47c1                	li	a5,16
     4da:	86b2                	mv	a3,a2
     4dc:	00c7f363          	bgeu	a5,a2,4e2 <can_drv_open+0x3e>
     4e0:	46c1                	li	a3,16
     4e2:	4785                	li	a5,1
     4e4:	c511                	beqz	a0,4f0 <can_drv_open+0x4c>
     4e6:	4621                	li	a2,8
     4e8:	87aa                	mv	a5,a0
     4ea:	00a67363          	bgeu	a2,a0,4f0 <can_drv_open+0x4c>
     4ee:	47a1                	li	a5,8
     4f0:	4611                	li	a2,4
     4f2:	0ae66f63          	bltu	a2,a4,5b0 <can_drv_open+0x10c>
     4f6:	e311                	bnez	a4,4fa <can_drv_open+0x56>
     4f8:	4705                	li	a4,1
     4fa:	4605                	li	a2,1
     4fc:	c981                	beqz	a1,50c <can_drv_open+0x68>
     4fe:	862e                	mv	a2,a1
     500:	40000593          	li	a1,1024
     504:	00c5f463          	bgeu	a1,a2,50c <can_drv_open+0x68>
     508:	40000613          	li	a2,1024
     50c:	0034d593          	srli	a1,s1,0x3
     510:	4505                	li	a0,1
     512:	8985                	andi	a1,a1,1
     514:	ca2e                	sw	a1,20(sp)
     516:	c62a                	sw	a0,12(sp)
     518:	0014f593          	andi	a1,s1,1
     51c:	ce2a                	sw	a0,28(sp)
     51e:	8889                	andi	s1,s1,2
     520:	c8d1                	beqz	s1,5b4 <can_drv_open+0x110>
     522:	450d                	li	a0,3
     524:	e191                	bnez	a1,528 <can_drv_open+0x84>
     526:	4505                	li	a0,1
     528:	8148                	sb	a0,2(sp)
     52a:	177d                	addi	a4,a4,-1
     52c:	81d8                	sb	a4,3(sp)
     52e:	17fd                	addi	a5,a5,-1
     530:	81018713          	addi	a4,gp,-2032 # 20000108 <s_can>
     534:	82dc                	sb	a5,5(sp)
     536:	00241793          	slli	a5,s0,0x2
     53a:	97ba                	add	a5,a5,a4
     53c:	0007a903          	lw	s2,0(a5) # 1000 <USBHS_IRQHandler+0x278>
     540:	16fd                	addi	a3,a3,-1
     542:	8254                	sb	a3,4(sp)
     544:	854a                	mv	a0,s2
     546:	8070                	sh	a2,0(sp)
     548:	5b3000ef          	jal	ra,12fa <CAN_DeInit>
     54c:	451d                	li	a0,7
     54e:	6d3000ef          	jal	ra,1420 <CAN_SlaveStartBank>
     552:	858a                	mv	a1,sp
     554:	854a                	mv	a0,s2
     556:	703000ef          	jal	ra,1458 <CAN_Init>
     55a:	8522                	mv	a0,s0
     55c:	33b5                	jal	2c8 <apply_filter_accept_all>
     55e:	82818493          	addi	s1,gp,-2008 # 20000120 <_edata>
     562:	cc29                	beqz	s0,5bc <can_drv_open+0x118>
     564:	4605                	li	a2,1
     566:	4589                	li	a1,2
     568:	854a                	mv	a0,s2
     56a:	316010ef          	jal	ra,1880 <CAN_ITConfig>
     56e:	02400793          	li	a5,36
     572:	c019                	beqz	s0,578 <can_drv_open+0xd4>
     574:	05000793          	li	a5,80
     578:	0057d713          	srli	a4,a5,0x5
     57c:	04070713          	addi	a4,a4,64
     580:	4605                	li	a2,1
     582:	8bfd                	andi	a5,a5,31
     584:	070a                	slli	a4,a4,0x2
     586:	e000e6b7          	lui	a3,0xe000e
     58a:	00f617b3          	sll	a5,a2,a5
     58e:	9736                	add	a4,a4,a3
     590:	c31c                	sw	a5,0(a4)
     592:	9426                	add	s0,s0,s1
     594:	a010                	sb	a2,0(s0)
     596:	209c                	lbu	a5,0(s1)
     598:	4505                	li	a0,1
     59a:	0ff7f793          	andi	a5,a5,255
     59e:	e791                	bnez	a5,5aa <can_drv_open+0x106>
     5a0:	3088                	lbu	a0,1(s1)
     5a2:	0ff57513          	andi	a0,a0,255
     5a6:	00a03533          	snez	a0,a0
     5aa:	2e65                	jal	962 <led_set_can_open>
     5ac:	6105                	addi	sp,sp,32
     5ae:	b19d                	j	214 <__riscv_restore_0>
     5b0:	4711                	li	a4,4
     5b2:	b7a1                	j	4fa <can_drv_open+0x56>
     5b4:	d9bd                	beqz	a1,52a <can_drv_open+0x86>
     5b6:	4589                	li	a1,2
     5b8:	814c                	sb	a1,2(sp)
     5ba:	bf85                	j	52a <can_drv_open+0x86>
     5bc:	309c                	lbu	a5,1(s1)
     5be:	0ff7f793          	andi	a5,a5,255
     5c2:	d3cd                	beqz	a5,564 <can_drv_open+0xc0>
     5c4:	4505                	li	a0,1
     5c6:	3309                	jal	2c8 <apply_filter_accept_all>
     5c8:	bf71                	j	564 <can_drv_open+0xc0>
     5ca:	8082                	ret

000005cc <can_drv_close>:
     5cc:	4785                	li	a5,1
     5ce:	08a7eb63          	bltu	a5,a0,664 <can_drv_close+0x98>
     5d2:	c1fff2ef          	jal	t0,1f0 <__riscv_save_0>
     5d6:	82818793          	addi	a5,gp,-2008 # 20000120 <_edata>
     5da:	97aa                	add	a5,a5,a0
     5dc:	239c                	lbu	a5,0(a5)
     5de:	82818493          	addi	s1,gp,-2008 # 20000120 <_edata>
     5e2:	0ff7f793          	andi	a5,a5,255
     5e6:	cfb5                	beqz	a5,662 <can_drv_close+0x96>
     5e8:	02400713          	li	a4,36
     5ec:	c119                	beqz	a0,5f2 <can_drv_close+0x26>
     5ee:	05000713          	li	a4,80
     5f2:	00575793          	srli	a5,a4,0x5
     5f6:	4685                	li	a3,1
     5f8:	8b7d                	andi	a4,a4,31
     5fa:	06078793          	addi	a5,a5,96
     5fe:	00e69733          	sll	a4,a3,a4
     602:	078a                	slli	a5,a5,0x2
     604:	e000e6b7          	lui	a3,0xe000e
     608:	97b6                	add	a5,a5,a3
     60a:	842a                	mv	s0,a0
     60c:	c398                	sw	a4,0(a5)
     60e:	0000100f          	fence.i
     612:	00251713          	slli	a4,a0,0x2
     616:	81018793          	addi	a5,gp,-2032 # 20000108 <s_can>
     61a:	97ba                	add	a5,a5,a4
     61c:	0007a903          	lw	s2,0(a5)
     620:	4601                	li	a2,0
     622:	4589                	li	a1,2
     624:	854a                	mv	a0,s2
     626:	25a010ef          	jal	ra,1880 <CAN_ITConfig>
     62a:	854a                	mv	a0,s2
     62c:	4cf000ef          	jal	ra,12fa <CAN_DeInit>
     630:	008487b3          	add	a5,s1,s0
     634:	00078023          	sb	zero,0(a5)
     638:	e811                	bnez	s0,64c <can_drv_close+0x80>
     63a:	451d                	li	a0,7
     63c:	5e5000ef          	jal	ra,1420 <CAN_SlaveStartBank>
     640:	309c                	lbu	a5,1(s1)
     642:	0ff7f793          	andi	a5,a5,255
     646:	c399                	beqz	a5,64c <can_drv_close+0x80>
     648:	4505                	li	a0,1
     64a:	39bd                	jal	2c8 <apply_filter_accept_all>
     64c:	209c                	lbu	a5,0(s1)
     64e:	4505                	li	a0,1
     650:	0ff7f793          	andi	a5,a5,255
     654:	e791                	bnez	a5,660 <can_drv_close+0x94>
     656:	3088                	lbu	a0,1(s1)
     658:	0ff57513          	andi	a0,a0,255
     65c:	00a03533          	snez	a0,a0
     660:	2609                	jal	962 <led_set_can_open>
     662:	be4d                	j	214 <__riscv_restore_0>
     664:	8082                	ret

00000666 <can_drv_send>:
     666:	4785                	li	a5,1
     668:	08a7e263          	bltu	a5,a0,6ec <can_drv_send+0x86>
     66c:	82818793          	addi	a5,gp,-2008 # 20000120 <_edata>
     670:	97aa                	add	a5,a5,a0
     672:	239c                	lbu	a5,0(a5)
     674:	872a                	mv	a4,a0
     676:	4511                	li	a0,4
     678:	0ff7f793          	andi	a5,a5,255
     67c:	cbb5                	beqz	a5,6f0 <can_drv_send+0x8a>
     67e:	b73ff2ef          	jal	t0,1f0 <__riscv_save_0>
     682:	41dc                	lw	a5,4(a1)
     684:	1101                	addi	sp,sp,-32
     686:	c602                	sw	zero,12(sp)
     688:	c802                	sw	zero,16(sp)
     68a:	ca02                	sw	zero,20(sp)
     68c:	cc02                	sw	zero,24(sp)
     68e:	ce02                	sw	zero,28(sp)
     690:	0407d663          	bgez	a5,6dc <can_drv_send+0x76>
     694:	4691                	li	a3,4
     696:	00d10a23          	sb	a3,20(sp)
     69a:	00379693          	slli	a3,a5,0x3
     69e:	828d                	srli	a3,a3,0x3
     6a0:	c836                	sw	a3,16(sp)
     6a2:	83f5                	srli	a5,a5,0x1d
     6a4:	8b89                	andi	a5,a5,2
     6a6:	00f10aa3          	sb	a5,21(sp)
     6aa:	259c                	lbu	a5,8(a1)
     6ac:	46a1                	li	a3,8
     6ae:	00f6f363          	bgeu	a3,a5,6b4 <can_drv_send+0x4e>
     6b2:	47a1                	li	a5,8
     6b4:	0ff7f613          	andi	a2,a5,255
     6b8:	0074                	addi	a3,sp,12
     6ba:	00f10b23          	sb	a5,22(sp)
     6be:	962e                	add	a2,a2,a1
     6c0:	87ae                	mv	a5,a1
     6c2:	85b6                	mv	a1,a3
     6c4:	0685                	addi	a3,a3,1
     6c6:	00c79f63          	bne	a5,a2,6e4 <can_drv_send+0x7e>
     6ca:	81018513          	addi	a0,gp,-2032 # 20000108 <s_can>
     6ce:	070a                	slli	a4,a4,0x2
     6d0:	972a                	add	a4,a4,a0
     6d2:	4308                	lw	a0,0(a4)
     6d4:	04e010ef          	jal	ra,1722 <CAN_Transmit>
     6d8:	6105                	addi	sp,sp,32
     6da:	be2d                	j	214 <__riscv_restore_0>
     6dc:	7ff7f693          	andi	a3,a5,2047
     6e0:	c636                	sw	a3,12(sp)
     6e2:	b7c1                	j	6a2 <can_drv_send+0x3c>
     6e4:	27c8                	lbu	a0,12(a5)
     6e6:	0785                	addi	a5,a5,1
     6e8:	a6a8                	sb	a0,10(a3)
     6ea:	bfe9                	j	6c4 <can_drv_send+0x5e>
     6ec:	4511                	li	a0,4
     6ee:	8082                	ret
     6f0:	8082                	ret

000006f2 <USB_LP_CAN1_RX0_IRQHandler>:
     6f2:	4501                	li	a0,0
     6f4:	3efd                	jal	2f2 <can_rx0_isr_body>
     6f6:	30200073          	mret

000006fa <CAN2_RX0_IRQHandler>:
     6fa:	4505                	li	a0,1
     6fc:	3edd                	jal	2f2 <can_rx0_isr_body>
     6fe:	30200073          	mret

00000702 <NMI_Handler>:
     702:	a001                	j	702 <NMI_Handler>

00000704 <HardFault_Handler>:
     704:	beef07b7          	lui	a5,0xbeef0
     708:	e000e737          	lui	a4,0xe000e
     70c:	08078793          	addi	a5,a5,128 # beef0080 <_eusrstack+0x9eee8080>
     710:	c73c                	sw	a5,72(a4)
     712:	a001                	j	712 <HardFault_Handler+0xe>

00000714 <tx_q_push>:
     714:	addff2ef          	jal	t0,1f0 <__riscv_save_0>
     718:	82b18413          	addi	s0,gp,-2005 # 20000123 <s_tx_q_head>
     71c:	201c                	lbu	a5,0(s0)
     71e:	82c1c703          	lbu	a4,-2004(gp) # 20000124 <s_tx_q_tail>
     722:	0785                	addi	a5,a5,1
     724:	8bfd                	andi	a5,a5,31
     726:	02e78163          	beq	a5,a4,748 <tx_q_push+0x34>
     72a:	85aa                	mv	a1,a0
     72c:	2008                	lbu	a0,0(s0)
     72e:	47d1                	li	a5,20
     730:	4651                	li	a2,20
     732:	02a787b3          	mul	a5,a5,a0
     736:	88018513          	addi	a0,gp,-1920 # 20000178 <s_tx_q>
     73a:	953e                	add	a0,a0,a5
     73c:	0a9010ef          	jal	ra,1fe4 <memcpy>
     740:	201c                	lbu	a5,0(s0)
     742:	0785                	addi	a5,a5,1
     744:	8bfd                	andi	a5,a5,31
     746:	a01c                	sb	a5,0(s0)
     748:	b4f1                	j	214 <__riscv_restore_0>

0000074a <pump_tx_in>:
     74a:	aa7ff2ef          	jal	t0,1f0 <__riscv_save_0>
     74e:	82b18493          	addi	s1,gp,-2005 # 20000123 <s_tx_q_head>
     752:	82c18413          	addi	s0,gp,-2004 # 20000124 <s_tx_q_tail>
     756:	2098                	lbu	a4,0(s1)
     758:	201c                	lbu	a5,0(s0)
     75a:	0ff7f793          	andi	a5,a5,255
     75e:	02e78563          	beq	a5,a4,788 <pump_tx_in+0x3e>
     762:	2008                	lbu	a0,0(s0)
     764:	47d1                	li	a5,20
     766:	02a787b3          	mul	a5,a5,a0
     76a:	88018513          	addi	a0,gp,-1920 # 20000178 <s_tx_q>
     76e:	953e                	add	a0,a0,a5
     770:	2b75                	jal	d2c <usbhs_dev_send_frame>
     772:	e919                	bnez	a0,788 <pump_tx_in+0x3e>
     774:	2098                	lbu	a4,0(s1)
     776:	201c                	lbu	a5,0(s0)
     778:	0ff7f793          	andi	a5,a5,255
     77c:	00e78663          	beq	a5,a4,788 <pump_tx_in+0x3e>
     780:	201c                	lbu	a5,0(s0)
     782:	0785                	addi	a5,a5,1
     784:	8bfd                	andi	a5,a5,31
     786:	a01c                	sb	a5,0(s0)
     788:	b471                	j	214 <__riscv_restore_0>

0000078a <gs_can_init>:
     78a:	820185a3          	sb	zero,-2005(gp) # 20000123 <s_tx_q_head>
     78e:	82018623          	sb	zero,-2004(gp) # 20000124 <s_tx_q_tail>
     792:	8082                	ret

00000794 <gs_can_on_enum>:
     794:	a5dff2ef          	jal	t0,1f0 <__riscv_save_0>
     798:	820185a3          	sb	zero,-2005(gp) # 20000123 <s_tx_q_head>
     79c:	4501                	li	a0,0
     79e:	82018623          	sb	zero,-2004(gp) # 20000124 <s_tx_q_tail>
     7a2:	352d                	jal	5cc <can_drv_close>
     7a4:	4505                	li	a0,1
     7a6:	351d                	jal	5cc <can_drv_close>
     7a8:	b4b5                	j	214 <__riscv_restore_0>

000007aa <gs_can_handle_vendor_setup_in>:
     7aa:	4695                	li	a3,5
     7ac:	02d50363          	beq	a0,a3,7d2 <gs_can_handle_vendor_setup_in+0x28>
     7b0:	00a6e763          	bltu	a3,a0,7be <gs_can_handle_vendor_setup_in+0x14>
     7b4:	4691                	li	a3,4
     7b6:	02d50563          	beq	a0,a3,7e0 <gs_can_handle_vendor_setup_in+0x36>
     7ba:	4505                	li	a0,1
     7bc:	8082                	ret
     7be:	4699                	li	a3,6
     7c0:	02d50f63          	beq	a0,a3,7fe <gs_can_handle_vendor_setup_in+0x54>
     7c4:	46b9                	li	a3,14
     7c6:	fed51ae3          	bne	a0,a3,7ba <gs_can_handle_vendor_setup_in+0x10>
     7ca:	668d                	lui	a3,0x3
     7cc:	18068693          	addi	a3,a3,384 # 3180 <zero.5601>
     7d0:	a029                	j	7da <gs_can_handle_vendor_setup_in+0x30>
     7d2:	200006b7          	lui	a3,0x20000
     7d6:	02868693          	addi	a3,a3,40 # 20000028 <s_dev_cfg>
     7da:	c314                	sw	a3,0(a4)
     7dc:	4731                	li	a4,12
     7de:	a829                	j	7f8 <gs_can_handle_vendor_setup_in+0x4e>
     7e0:	0ff5f593          	andi	a1,a1,255
     7e4:	4505                	li	a0,1
     7e6:	00b56b63          	bltu	a0,a1,7fc <gs_can_handle_vendor_setup_in+0x52>
     7ea:	200006b7          	lui	a3,0x20000
     7ee:	00068693          	mv	a3,a3
     7f2:	c314                	sw	a3,0(a4)
     7f4:	02800713          	li	a4,40
     7f8:	a39a                	sh	a4,0(a5)
     7fa:	4501                	li	a0,0
     7fc:	8082                	ret
     7fe:	81818693          	addi	a3,gp,-2024 # 20000110 <zero.5599>
     802:	c314                	sw	a3,0(a4)
     804:	4711                	li	a4,4
     806:	bfcd                	j	7f8 <gs_can_handle_vendor_setup_in+0x4e>

00000808 <gs_can_handle_vendor_setup_out>:
     808:	9e9ff2ef          	jal	t0,1f0 <__riscv_save_0>
     80c:	842a                	mv	s0,a0
     80e:	4785                	li	a5,1
     810:	0ff5f513          	andi	a0,a1,255
     814:	00f40f63          	beq	s0,a5,832 <gs_can_handle_vendor_setup_out+0x2a>
     818:	c811                	beqz	s0,82c <gs_can_handle_vendor_setup_out+0x24>
     81a:	4609                	li	a2,2
     81c:	02c40463          	beq	s0,a2,844 <gs_can_handle_vendor_setup_out+0x3c>
     820:	461d                	li	a2,7
     822:	04c40163          	beq	s0,a2,864 <gs_can_handle_vendor_setup_out+0x5c>
     826:	4405                	li	s0,1
     828:	8522                	mv	a0,s0
     82a:	b2ed                	j	214 <__riscv_restore_0>
     82c:	00473413          	sltiu	s0,a4,4
     830:	bfe5                	j	828 <gs_can_handle_vendor_setup_out+0x20>
     832:	fea46be3          	bltu	s0,a0,828 <gs_can_handle_vendor_setup_out+0x20>
     836:	47cd                	li	a5,19
     838:	fee7f8e3          	bgeu	a5,a4,828 <gs_can_handle_vendor_setup_out+0x20>
     83c:	85b6                	mv	a1,a3
     83e:	313d                	jal	46c <can_drv_set_bittiming>
     840:	4401                	li	s0,0
     842:	b7dd                	j	828 <gs_can_handle_vendor_setup_out+0x20>
     844:	4405                	li	s0,1
     846:	fea461e3          	bltu	s0,a0,828 <gs_can_handle_vendor_setup_out+0x20>
     84a:	461d                	li	a2,7
     84c:	fce67ee3          	bgeu	a2,a4,828 <gs_can_handle_vendor_setup_out+0x20>
     850:	4298                	lw	a4,0(a3)
     852:	e319                	bnez	a4,858 <gs_can_handle_vendor_setup_out+0x50>
     854:	3ba5                	jal	5cc <can_drv_close>
     856:	b7ed                	j	840 <gs_can_handle_vendor_setup_out+0x38>
     858:	4401                	li	s0,0
     85a:	fcf717e3          	bne	a4,a5,828 <gs_can_handle_vendor_setup_out+0x20>
     85e:	42cc                	lw	a1,4(a3)
     860:	3191                	jal	4a4 <can_drv_open>
     862:	b7d9                	j	828 <gs_can_handle_vendor_setup_out+0x20>
     864:	4405                	li	s0,1
     866:	fca7e1e3          	bltu	a5,a0,828 <gs_can_handle_vendor_setup_out+0x20>
     86a:	460d                	li	a2,3
     86c:	fae67ee3          	bgeu	a2,a4,828 <gs_can_handle_vendor_setup_out+0x20>
     870:	4294                	lw	a3,0(a3)
     872:	00a79533          	sll	a0,a5,a0
     876:	82a1c783          	lbu	a5,-2006(gp) # 20000122 <identify_mask.5617>
     87a:	0ff57513          	andi	a0,a0,255
     87e:	82a18713          	addi	a4,gp,-2006 # 20000122 <identify_mask.5617>
     882:	c699                	beqz	a3,890 <gs_can_handle_vendor_setup_out+0x88>
     884:	8d5d                	or	a0,a0,a5
     886:	a308                	sb	a0,0(a4)
     888:	00a03533          	snez	a0,a0
     88c:	20e5                	jal	974 <led_set_identify>
     88e:	bf4d                	j	840 <gs_can_handle_vendor_setup_out+0x38>
     890:	fff54513          	not	a0,a0
     894:	8d7d                	and	a0,a0,a5
     896:	bfc5                	j	886 <gs_can_handle_vendor_setup_out+0x7e>

00000898 <gs_can_handle_bulk_out>:
     898:	959ff2ef          	jal	t0,1f0 <__riscv_save_0>
     89c:	1101                	addi	sp,sp,-32
     89e:	84aa                	mv	s1,a0
     8a0:	85aa                	mv	a1,a0
     8a2:	4651                	li	a2,20
     8a4:	0068                	addi	a0,sp,12
     8a6:	73e010ef          	jal	ra,1fe4 <memcpy>
     8aa:	3480                	lbu	s0,9(s1)
     8ac:	4785                	li	a5,1
     8ae:	0087e863          	bltu	a5,s0,8be <gs_can_handle_bulk_out+0x26>
     8b2:	8522                	mv	a0,s0
     8b4:	3ee1                	jal	48c <can_drv_is_open>
     8b6:	c501                	beqz	a0,8be <gs_can_handle_bulk_out+0x26>
     8b8:	85a6                	mv	a1,s1
     8ba:	8522                	mv	a0,s0
     8bc:	336d                	jal	666 <can_drv_send>
     8be:	0068                	addi	a0,sp,12
     8c0:	3d91                	jal	714 <tx_q_push>
     8c2:	3561                	jal	74a <pump_tx_in>
     8c4:	294d                	jal	d76 <usbhs_dev_rearm_bulk_out>
     8c6:	6105                	addi	sp,sp,32
     8c8:	94dff06f          	j	214 <__riscv_restore_0>

000008cc <gs_can_handle_bulk_in_complete>:
     8cc:	925ff2ef          	jal	t0,1f0 <__riscv_save_0>
     8d0:	3dad                	jal	74a <pump_tx_in>
     8d2:	943ff06f          	j	214 <__riscv_restore_0>

000008d6 <can_drv_on_rx>:
     8d6:	91bff2ef          	jal	t0,1f0 <__riscv_save_0>
     8da:	3d2d                	jal	714 <tx_q_push>
     8dc:	35bd                	jal	74a <pump_tx_in>
     8de:	937ff06f          	j	214 <__riscv_restore_0>

000008e2 <led_apply>:
     8e2:	90fff2ef          	jal	t0,1f0 <__riscv_save_0>
     8e6:	82e1c783          	lbu	a5,-2002(gp) # 20000126 <s_identify>
     8ea:	40011537          	lui	a0,0x40011
     8ee:	45a1                	li	a1,8
     8f0:	0ff7f793          	andi	a5,a5,255
     8f4:	80050513          	addi	a0,a0,-2048 # 40010800 <_eusrstack+0x20008800>
     8f8:	e791                	bnez	a5,904 <led_apply+0x22>
     8fa:	82d1c783          	lbu	a5,-2003(gp) # 20000125 <s_can_open>
     8fe:	0ff7f793          	andi	a5,a5,255
     902:	c789                	beqz	a5,90c <led_apply+0x2a>
     904:	1c0010ef          	jal	ra,1ac4 <GPIO_ResetBits>
     908:	90dff06f          	j	214 <__riscv_restore_0>
     90c:	1b4010ef          	jal	ra,1ac0 <GPIO_SetBits>
     910:	bfe5                	j	908 <led_apply+0x26>

00000912 <led_init>:
     912:	8dfff2ef          	jal	t0,1f0 <__riscv_save_0>
     916:	1141                	addi	sp,sp,-16
     918:	4585                	li	a1,1
     91a:	4511                	li	a0,4
     91c:	40011437          	lui	s0,0x40011
     920:	c202                	sw	zero,4(sp)
     922:	c402                	sw	zero,8(sp)
     924:	c602                	sw	zero,12(sp)
     926:	412010ef          	jal	ra,1d38 <RCC_APB2PeriphClockCmd>
     92a:	80040513          	addi	a0,s0,-2048 # 40010800 <_eusrstack+0x20008800>
     92e:	45a1                	li	a1,8
     930:	190010ef          	jal	ra,1ac0 <GPIO_SetBits>
     934:	47a1                	li	a5,8
     936:	827c                	sh	a5,4(sp)
     938:	47c1                	li	a5,16
     93a:	c63e                	sw	a5,12(sp)
     93c:	004c                	addi	a1,sp,4
     93e:	4789                	li	a5,2
     940:	80040513          	addi	a0,s0,-2048
     944:	c43e                	sw	a5,8(sp)
     946:	0ba010ef          	jal	ra,1a00 <GPIO_Init>
     94a:	820186a3          	sb	zero,-2003(gp) # 20000125 <s_can_open>
     94e:	45a1                	li	a1,8
     950:	80040513          	addi	a0,s0,-2048
     954:	82018723          	sb	zero,-2002(gp) # 20000126 <s_identify>
     958:	168010ef          	jal	ra,1ac0 <GPIO_SetBits>
     95c:	0141                	addi	sp,sp,16
     95e:	8b7ff06f          	j	214 <__riscv_restore_0>

00000962 <led_set_can_open>:
     962:	88fff2ef          	jal	t0,1f0 <__riscv_save_0>
     966:	00a03533          	snez	a0,a0
     96a:	82a186a3          	sb	a0,-2003(gp) # 20000125 <s_can_open>
     96e:	3f95                	jal	8e2 <led_apply>
     970:	8a5ff06f          	j	214 <__riscv_restore_0>

00000974 <led_set_identify>:
     974:	87dff2ef          	jal	t0,1f0 <__riscv_save_0>
     978:	00a03533          	snez	a0,a0
     97c:	82a18723          	sb	a0,-2002(gp) # 20000126 <s_identify>
     980:	378d                	jal	8e2 <led_apply>
     982:	893ff06f          	j	214 <__riscv_restore_0>

00000986 <main>:
     986:	86bff2ef          	jal	t0,1f0 <__riscv_save_0>
     98a:	1141                	addi	sp,sp,-16
     98c:	4509                	li	a0,2
     98e:	210010ef          	jal	ra,1b9e <NVIC_PriorityGroupConfig>
     992:	2a1d                	jal	ac8 <SystemCoreClockUpdate>
     994:	53c010ef          	jal	ra,1ed0 <Delay_Init>
     998:	6571                	lui	a0,0x1c
     99a:	20050513          	addi	a0,a0,512 # 1c200 <_data_lma+0x18ea8>
     99e:	592010ef          	jal	ra,1f30 <USART_Printf_Init>
     9a2:	200007b7          	lui	a5,0x20000
     9a6:	0f87a583          	lw	a1,248(a5) # 200000f8 <SystemCoreClock>
     9aa:	c62e                	sw	a1,12(sp)
     9ac:	04a010ef          	jal	ra,19f6 <DBGMCU_GetCHIPID>
     9b0:	45b2                	lw	a1,12(sp)
     9b2:	862a                	mv	a2,a0
     9b4:	00003537          	lui	a0,0x3
     9b8:	18c50513          	addi	a0,a0,396 # 318c <zero.5601+0xc>
     9bc:	6da010ef          	jal	ra,2096 <iprintf>
     9c0:	3f89                	jal	912 <led_init>
     9c2:	9f3ff0ef          	jal	ra,3b4 <can_drv_init>
     9c6:	33d1                	jal	78a <gs_can_init>
     9c8:	2ce9                	jal	ca2 <usbhs_dev_rcc_init>
     9ca:	2629                	jal	cd4 <usbhs_dev_init>
     9cc:	0001                	nop
     9ce:	bffd                	j	9cc <main+0x46>

000009d0 <SystemInit>:
     9d0:	400217b7          	lui	a5,0x40021
     9d4:	4398                	lw	a4,0(a5)
     9d6:	f0ff06b7          	lui	a3,0xf0ff0
     9da:	1141                	addi	sp,sp,-16
     9dc:	00176713          	ori	a4,a4,1
     9e0:	c398                	sw	a4,0(a5)
     9e2:	43d8                	lw	a4,4(a5)
     9e4:	00020637          	lui	a2,0x20
     9e8:	8f75                	and	a4,a4,a3
     9ea:	c3d8                	sw	a4,4(a5)
     9ec:	4398                	lw	a4,0(a5)
     9ee:	fef706b7          	lui	a3,0xfef70
     9f2:	16fd                	addi	a3,a3,-1
     9f4:	8f75                	and	a4,a4,a3
     9f6:	c398                	sw	a4,0(a5)
     9f8:	4398                	lw	a4,0(a5)
     9fa:	fffc06b7          	lui	a3,0xfffc0
     9fe:	16fd                	addi	a3,a3,-1
     a00:	8f75                	and	a4,a4,a3
     a02:	c398                	sw	a4,0(a5)
     a04:	43d8                	lw	a4,4(a5)
     a06:	ff0106b7          	lui	a3,0xff010
     a0a:	16fd                	addi	a3,a3,-1
     a0c:	8f75                	and	a4,a4,a3
     a0e:	c3d8                	sw	a4,4(a5)
     a10:	4398                	lw	a4,0(a5)
     a12:	ec0006b7          	lui	a3,0xec000
     a16:	16fd                	addi	a3,a3,-1
     a18:	8f75                	and	a4,a4,a3
     a1a:	c398                	sw	a4,0(a5)
     a1c:	00ff0737          	lui	a4,0xff0
     a20:	c798                	sw	a4,8(a5)
     a22:	0207a623          	sw	zero,44(a5) # 4002102c <_eusrstack+0x2001902c>
     a26:	c402                	sw	zero,8(sp)
     a28:	c602                	sw	zero,12(sp)
     a2a:	4398                	lw	a4,0(a5)
     a2c:	66c1                	lui	a3,0x10
     a2e:	8f55                	or	a4,a4,a3
     a30:	c398                	sw	a4,0(a5)
     a32:	400216b7          	lui	a3,0x40021
     a36:	6705                	lui	a4,0x1
     a38:	429c                	lw	a5,0(a3)
     a3a:	8ff1                	and	a5,a5,a2
     a3c:	c63e                	sw	a5,12(sp)
     a3e:	47a2                	lw	a5,8(sp)
     a40:	0785                	addi	a5,a5,1
     a42:	c43e                	sw	a5,8(sp)
     a44:	47b2                	lw	a5,12(sp)
     a46:	e781                	bnez	a5,a4e <SystemInit+0x7e>
     a48:	47a2                	lw	a5,8(sp)
     a4a:	fee797e3          	bne	a5,a4,a38 <SystemInit+0x68>
     a4e:	400217b7          	lui	a5,0x40021
     a52:	439c                	lw	a5,0(a5)
     a54:	00e79713          	slli	a4,a5,0xe
     a58:	06075663          	bgez	a4,ac4 <SystemInit+0xf4>
     a5c:	4785                	li	a5,1
     a5e:	c63e                	sw	a5,12(sp)
     a60:	4732                	lw	a4,12(sp)
     a62:	4785                	li	a5,1
     a64:	04f71e63          	bne	a4,a5,ac0 <SystemInit+0xf0>
     a68:	400217b7          	lui	a5,0x40021
     a6c:	43d8                	lw	a4,4(a5)
     a6e:	ffc106b7          	lui	a3,0xffc10
     a72:	16fd                	addi	a3,a3,-1
     a74:	c3d8                	sw	a4,4(a5)
     a76:	43d8                	lw	a4,4(a5)
     a78:	c3d8                	sw	a4,4(a5)
     a7a:	43d8                	lw	a4,4(a5)
     a7c:	40076713          	ori	a4,a4,1024
     a80:	c3d8                	sw	a4,4(a5)
     a82:	43d8                	lw	a4,4(a5)
     a84:	8f75                	and	a4,a4,a3
     a86:	c3d8                	sw	a4,4(a5)
     a88:	43d8                	lw	a4,4(a5)
     a8a:	66c1                	lui	a3,0x10
     a8c:	8f55                	or	a4,a4,a3
     a8e:	c3d8                	sw	a4,4(a5)
     a90:	4398                	lw	a4,0(a5)
     a92:	010006b7          	lui	a3,0x1000
     a96:	8f55                	or	a4,a4,a3
     a98:	c398                	sw	a4,0(a5)
     a9a:	4398                	lw	a4,0(a5)
     a9c:	00671693          	slli	a3,a4,0x6
     aa0:	fe06dde3          	bgez	a3,a9a <SystemInit+0xca>
     aa4:	43d8                	lw	a4,4(a5)
     aa6:	400216b7          	lui	a3,0x40021
     aaa:	9b71                	andi	a4,a4,-4
     aac:	c3d8                	sw	a4,4(a5)
     aae:	43d8                	lw	a4,4(a5)
     ab0:	00276713          	ori	a4,a4,2
     ab4:	c3d8                	sw	a4,4(a5)
     ab6:	4721                	li	a4,8
     ab8:	42dc                	lw	a5,4(a3)
     aba:	8bb1                	andi	a5,a5,12
     abc:	fee79ee3          	bne	a5,a4,ab8 <SystemInit+0xe8>
     ac0:	0141                	addi	sp,sp,16
     ac2:	8082                	ret
     ac4:	c602                	sw	zero,12(sp)
     ac6:	bf69                	j	a60 <SystemInit+0x90>

00000ac8 <SystemCoreClockUpdate>:
     ac8:	400216b7          	lui	a3,0x40021
     acc:	42d8                	lw	a4,4(a3)
     ace:	200007b7          	lui	a5,0x20000
     ad2:	4611                	li	a2,4
     ad4:	8b31                	andi	a4,a4,12
     ad6:	0f878793          	addi	a5,a5,248 # 200000f8 <SystemCoreClock>
     ada:	00c70563          	beq	a4,a2,ae4 <SystemCoreClockUpdate+0x1c>
     ade:	4621                	li	a2,8
     ae0:	02c70863          	beq	a4,a2,b10 <SystemCoreClockUpdate+0x48>
     ae4:	007a1737          	lui	a4,0x7a1
     ae8:	20070713          	addi	a4,a4,512 # 7a1200 <_data_lma+0x79dea8>
     aec:	c398                	sw	a4,0(a5)
     aee:	40021737          	lui	a4,0x40021
     af2:	4358                	lw	a4,4(a4)
     af4:	8311                	srli	a4,a4,0x4
     af6:	00f77693          	andi	a3,a4,15
     afa:	20000737          	lui	a4,0x20000
     afe:	03470713          	addi	a4,a4,52 # 20000034 <AHBPrescTable>
     b02:	9736                	add	a4,a4,a3
     b04:	2314                	lbu	a3,0(a4)
     b06:	4398                	lw	a4,0(a5)
     b08:	00d75733          	srl	a4,a4,a3
     b0c:	c398                	sw	a4,0(a5)
     b0e:	8082                	ret
     b10:	42d8                	lw	a4,4(a3)
     b12:	42d4                	lw	a3,4(a3)
     b14:	6641                	lui	a2,0x10
     b16:	8349                	srli	a4,a4,0x12
     b18:	8b3d                	andi	a4,a4,15
     b1a:	8ef1                	and	a3,a3,a2
     b1c:	00270613          	addi	a2,a4,2
     b20:	cf15                	beqz	a4,b5c <SystemCoreClockUpdate+0x94>
     b22:	473d                	li	a4,15
     b24:	02e60f63          	beq	a2,a4,b62 <SystemCoreClockUpdate+0x9a>
     b28:	4741                	li	a4,16
     b2a:	02e60f63          	beq	a2,a4,b68 <SystemCoreClockUpdate+0xa0>
     b2e:	4745                	li	a4,17
     b30:	4581                	li	a1,0
     b32:	00e61363          	bne	a2,a4,b38 <SystemCoreClockUpdate+0x70>
     b36:	4641                	li	a2,16
     b38:	e2a1                	bnez	a3,b78 <SystemCoreClockUpdate+0xb0>
     b3a:	40024737          	lui	a4,0x40024
     b3e:	80072703          	lw	a4,-2048(a4) # 40023800 <_eusrstack+0x2001b800>
     b42:	8b41                	andi	a4,a4,16
     b44:	c70d                	beqz	a4,b6e <SystemCoreClockUpdate+0xa6>
     b46:	007a1737          	lui	a4,0x7a1
     b4a:	20070713          	addi	a4,a4,512 # 7a1200 <_data_lma+0x79dea8>
     b4e:	02c70633          	mul	a2,a4,a2
     b52:	c390                	sw	a2,0(a5)
     b54:	ddc9                	beqz	a1,aee <SystemCoreClockUpdate+0x26>
     b56:	4398                	lw	a4,0(a5)
     b58:	8305                	srli	a4,a4,0x1
     b5a:	bf49                	j	aec <SystemCoreClockUpdate+0x24>
     b5c:	4581                	li	a1,0
     b5e:	4649                	li	a2,18
     b60:	bfe1                	j	b38 <SystemCoreClockUpdate+0x70>
     b62:	4585                	li	a1,1
     b64:	4635                	li	a2,13
     b66:	bfc9                	j	b38 <SystemCoreClockUpdate+0x70>
     b68:	4581                	li	a1,0
     b6a:	463d                	li	a2,15
     b6c:	b7f1                	j	b38 <SystemCoreClockUpdate+0x70>
     b6e:	003d1737          	lui	a4,0x3d1
     b72:	90070713          	addi	a4,a4,-1792 # 3d0900 <_data_lma+0x3cd5a8>
     b76:	bfe1                	j	b4e <SystemCoreClockUpdate+0x86>
     b78:	40021537          	lui	a0,0x40021
     b7c:	5558                	lw	a4,44(a0)
     b7e:	00f71693          	slli	a3,a4,0xf
     b82:	5558                	lw	a4,44(a0)
     b84:	0406df63          	bgez	a3,be2 <SystemCoreClockUpdate+0x11a>
     b88:	8311                	srli	a4,a4,0x4
     b8a:	8b3d                	andi	a4,a4,15
     b8c:	00170693          	addi	a3,a4,1
     b90:	007a1737          	lui	a4,0x7a1
     b94:	20070713          	addi	a4,a4,512 # 7a1200 <_data_lma+0x79dea8>
     b98:	02d75733          	divu	a4,a4,a3
     b9c:	c398                	sw	a4,0(a5)
     b9e:	5554                	lw	a3,44(a0)
     ba0:	82a1                	srli	a3,a3,0x8
     ba2:	8abd                	andi	a3,a3,15
     ba4:	e28d                	bnez	a3,bc6 <SystemCoreClockUpdate+0xfe>
     ba6:	4695                	li	a3,5
     ba8:	02d70733          	mul	a4,a4,a3
     bac:	8305                	srli	a4,a4,0x1
     bae:	c398                	sw	a4,0(a5)
     bb0:	40021737          	lui	a4,0x40021
     bb4:	5758                	lw	a4,44(a4)
     bb6:	4394                	lw	a3,0(a5)
     bb8:	8b3d                	andi	a4,a4,15
     bba:	0705                	addi	a4,a4,1
     bbc:	02e6d733          	divu	a4,a3,a4
     bc0:	c398                	sw	a4,0(a5)
     bc2:	4398                	lw	a4,0(a5)
     bc4:	b769                	j	b4e <SystemCoreClockUpdate+0x86>
     bc6:	4505                	li	a0,1
     bc8:	00a69463          	bne	a3,a0,bd0 <SystemCoreClockUpdate+0x108>
     bcc:	46e5                	li	a3,25
     bce:	bfe9                	j	ba8 <SystemCoreClockUpdate+0xe0>
     bd0:	453d                	li	a0,15
     bd2:	00a69663          	bne	a3,a0,bde <SystemCoreClockUpdate+0x116>
     bd6:	46d1                	li	a3,20
     bd8:	02e68733          	mul	a4,a3,a4
     bdc:	bfc9                	j	bae <SystemCoreClockUpdate+0xe6>
     bde:	0689                	addi	a3,a3,2
     be0:	bfe5                	j	bd8 <SystemCoreClockUpdate+0x110>
     be2:	8b3d                	andi	a4,a4,15
     be4:	00170693          	addi	a3,a4,1 # 40021001 <_eusrstack+0x20019001>
     be8:	007a1737          	lui	a4,0x7a1
     bec:	20070713          	addi	a4,a4,512 # 7a1200 <_data_lma+0x79dea8>
     bf0:	02d75733          	divu	a4,a4,a3
     bf4:	b7f1                	j	bc0 <SystemCoreClockUpdate+0xf8>

00000bf6 <usbhs_endp_init>:
     bf6:	00040737          	lui	a4,0x40
     bfa:	400237b7          	lui	a5,0x40023
     bfe:	0709                	addi	a4,a4,2
     c00:	40e7a823          	sw	a4,1040(a5) # 40023410 <_eusrstack+0x2001b410>
     c04:	04000713          	li	a4,64
     c08:	48e79c23          	sh	a4,1176(a5)
     c0c:	20000713          	li	a4,512
     c10:	48e79e23          	sh	a4,1180(a5)
     c14:	4ae79023          	sh	a4,1184(a5)
     c18:	b0018713          	addi	a4,gp,-1280 # 200003f8 <s_ep0_buf>
     c1c:	40e7ae23          	sw	a4,1052(a5)
     c20:	b4018713          	addi	a4,gp,-1216 # 20000438 <s_ep1_in_buf>
     c24:	44e7ae23          	sw	a4,1116(a5)
     c28:	d4018713          	addi	a4,gp,-704 # 20000638 <s_ep2_out_buf>
     c2c:	42e7a223          	sw	a4,1060(a5)
     c30:	4c079c23          	sh	zero,1240(a5)
     c34:	4709                	li	a4,2
     c36:	4ce78d23          	sb	a4,1242(a5)
     c3a:	4c078da3          	sb	zero,1243(a5)
     c3e:	4c079e23          	sh	zero,1244(a5)
     c42:	4ce78f23          	sb	a4,1246(a5)
     c46:	4e0781a3          	sb	zero,1251(a5)
     c4a:	820189a3          	sb	zero,-1997(gp) # 2000012b <s_ep1_in_busy>
     c4e:	8082                	ret

00000c50 <ep0_tx_chunk>:
     c50:	d86ff2ef          	jal	t0,1d6 <__riscv_save_4>
     c54:	83c1d483          	lhu	s1,-1988(gp) # 20000134 <s_setup_in_remaining>
     c58:	04000713          	li	a4,64
     c5c:	83c18913          	addi	s2,gp,-1988 # 20000134 <s_setup_in_remaining>
     c60:	04000413          	li	s0,64
     c64:	00976363          	bltu	a4,s1,c6a <ep0_tx_chunk+0x1a>
     c68:	8426                	mv	s0,s1
     c6a:	0442                	slli	s0,s0,0x10
     c6c:	8041                	srli	s0,s0,0x10
     c6e:	8381aa03          	lw	s4,-1992(gp) # 20000130 <s_setup_in_ptr>
     c72:	83818993          	addi	s3,gp,-1992 # 20000130 <s_setup_in_ptr>
     c76:	c499                	beqz	s1,c84 <ep0_tx_chunk+0x34>
     c78:	8622                	mv	a2,s0
     c7a:	85d2                	mv	a1,s4
     c7c:	b0018513          	addi	a0,gp,-1280 # 200003f8 <s_ep0_buf>
     c80:	364010ef          	jal	ra,1fe4 <memcpy>
     c84:	9a22                	add	s4,s4,s0
     c86:	8c81                	sub	s1,s1,s0
     c88:	0149a023          	sw	s4,0(s3)
     c8c:	00991023          	sh	s1,0(s2)
     c90:	400237b7          	lui	a5,0x40023
     c94:	4c879c23          	sh	s0,1240(a5) # 400234d8 <_eusrstack+0x2001b4d8>
     c98:	4721                	li	a4,8
     c9a:	4ce78d23          	sb	a4,1242(a5)
     c9e:	d6cff06f          	j	20a <__riscv_restore_4>

00000ca2 <usbhs_dev_rcc_init>:
     ca2:	d4eff2ef          	jal	t0,1f0 <__riscv_save_0>
     ca6:	4505                	li	a0,1
     ca8:	15c010ef          	jal	ra,1e04 <RCC_USBCLK48MConfig>
     cac:	4501                	li	a0,0
     cae:	0fe010ef          	jal	ra,1dac <RCC_USBHSPLLCLKConfig>
     cb2:	4505                	li	a0,1
     cb4:	0de010ef          	jal	ra,1d92 <RCC_USBHSConfig>
     cb8:	4505                	li	a0,1
     cba:	10c010ef          	jal	ra,1dc6 <RCC_USBHSPLLCKREFCLKConfig>
     cbe:	4505                	li	a0,1
     cc0:	120010ef          	jal	ra,1de0 <RCC_USBHSPHYPLLALIVEcmd>
     cc4:	6505                	lui	a0,0x1
     cc6:	4585                	li	a1,1
     cc8:	80050513          	addi	a0,a0,-2048 # 800 <__stack_size>
     ccc:	04e010ef          	jal	ra,1d1a <RCC_AHBPeriphClockCmd>
     cd0:	d44ff06f          	j	214 <__riscv_restore_0>

00000cd4 <usbhs_dev_init>:
     cd4:	d1cff2ef          	jal	t0,1f0 <__riscv_save_0>
     cd8:	40023437          	lui	s0,0x40023
     cdc:	4799                	li	a5,6
     cde:	40f40023          	sb	a5,1024(s0) # 40023400 <_eusrstack+0x2001b400>
     ce2:	4529                	li	a0,10
     ce4:	216010ef          	jal	ra,1efa <Delay_Us>
     ce8:	40044783          	lbu	a5,1024(s0)
     cec:	40040493          	addi	s1,s0,1024
     cf0:	0fb7f793          	andi	a5,a5,251
     cf4:	40f40023          	sb	a5,1024(s0)
     cf8:	47c1                	li	a5,16
     cfa:	40f400a3          	sb	a5,1025(s0)
     cfe:	02900793          	li	a5,41
     d02:	40f40023          	sb	a5,1024(s0)
     d06:	02700793          	li	a5,39
     d0a:	40f40123          	sb	a5,1026(s0)
     d0e:	35e5                	jal	bf6 <usbhs_endp_init>
     d10:	40044783          	lbu	a5,1024(s0)
     d14:	00200737          	lui	a4,0x200
     d18:	0107e793          	ori	a5,a5,16
     d1c:	40f40023          	sb	a5,1024(s0)
     d20:	e000e7b7          	lui	a5,0xe000e
     d24:	10e7a423          	sw	a4,264(a5) # e000e108 <_eusrstack+0xc0006108>
     d28:	cecff06f          	j	214 <__riscv_restore_0>

00000d2c <usbhs_dev_send_frame>:
     d2c:	cc4ff2ef          	jal	t0,1f0 <__riscv_save_0>
     d30:	8311c783          	lbu	a5,-1999(gp) # 20000129 <s_dev_configured>
     d34:	4405                	li	s0,1
     d36:	0ff7f793          	andi	a5,a5,255
     d3a:	cb9d                	beqz	a5,d70 <usbhs_dev_send_frame+0x44>
     d3c:	83318493          	addi	s1,gp,-1997 # 2000012b <s_ep1_in_busy>
     d40:	209c                	lbu	a5,0(s1)
     d42:	4405                	li	s0,1
     d44:	0ff7f793          	andi	a5,a5,255
     d48:	e785                	bnez	a5,d70 <usbhs_dev_send_frame+0x44>
     d4a:	85aa                	mv	a1,a0
     d4c:	4651                	li	a2,20
     d4e:	b4018513          	addi	a0,gp,-1216 # 20000438 <s_ep1_in_buf>
     d52:	292010ef          	jal	ra,1fe4 <memcpy>
     d56:	400237b7          	lui	a5,0x40023
     d5a:	4751                	li	a4,20
     d5c:	4ce79e23          	sh	a4,1244(a5) # 400234dc <_eusrstack+0x2001b4dc>
     d60:	4de7c703          	lbu	a4,1246(a5)
     d64:	0fc77713          	andi	a4,a4,252
     d68:	4ce78f23          	sb	a4,1246(a5)
     d6c:	a080                	sb	s0,0(s1)
     d6e:	4401                	li	s0,0
     d70:	8522                	mv	a0,s0
     d72:	ca2ff06f          	j	214 <__riscv_restore_0>

00000d76 <usbhs_dev_rearm_bulk_out>:
     d76:	400237b7          	lui	a5,0x40023
     d7a:	4e37c703          	lbu	a4,1251(a5) # 400234e3 <_eusrstack+0x2001b4e3>
     d7e:	0fc77713          	andi	a4,a4,252
     d82:	4ee781a3          	sb	a4,1251(a5)
     d86:	8082                	ret

00000d88 <USBHS_IRQHandler>:
     d88:	1101                	addi	sp,sp,-32
     d8a:	ce22                	sw	s0,28(sp)
     d8c:	40023437          	lui	s0,0x40023
     d90:	cc26                	sw	s1,24(sp)
     d92:	ca4a                	sw	s2,20(sp)
     d94:	c84e                	sw	s3,16(sp)
     d96:	40040413          	addi	s0,s0,1024 # 40023400 <_eusrstack+0x2001b400>
     d9a:	2438                	lbu	a4,10(s0)
     d9c:	343c                	lbu	a5,11(s0)
     d9e:	0ff77713          	andi	a4,a4,255
     da2:	00277693          	andi	a3,a4,2
     da6:	16068763          	beqz	a3,f14 <USBHS_IRQHandler+0x18c>
     daa:	0ff7f793          	andi	a5,a5,255
     dae:	0307f693          	andi	a3,a5,48
     db2:	02000613          	li	a2,32
     db6:	00f7f713          	andi	a4,a5,15
     dba:	08c69163          	bne	a3,a2,e3c <USBHS_IRQHandler+0xb4>
     dbe:	eb29                	bnez	a4,e10 <USBHS_IRQHandler+0x88>
     dc0:	83c1d783          	lhu	a5,-1988(gp) # 20000134 <s_setup_in_remaining>
     dc4:	c3b1                	beqz	a5,e08 <USBHS_IRQHandler+0x80>
     dc6:	3569                	jal	c50 <ep0_tx_chunk>
     dc8:	8351c783          	lbu	a5,-1995(gp) # 2000012d <s_setup_bmReqType>
     dcc:	0607f793          	andi	a5,a5,96
     dd0:	ef91                	bnez	a5,dec <USBHS_IRQHandler+0x64>
     dd2:	8341c783          	lbu	a5,-1996(gp) # 2000012c <s_setup_bRequest>
     dd6:	4715                	li	a4,5
     dd8:	00f71a63          	bne	a4,a5,dec <USBHS_IRQHandler+0x64>
     ddc:	82f1c703          	lbu	a4,-2001(gp) # 20000127 <s_dev_addr>
     de0:	400237b7          	lui	a5,0x40023
     de4:	0ff77713          	andi	a4,a4,255
     de8:	40e781a3          	sb	a4,1027(a5) # 40023403 <_eusrstack+0x2001b403>
     dec:	400237b7          	lui	a5,0x40023
     df0:	4709                	li	a4,2
     df2:	40e78523          	sb	a4,1034(a5) # 4002340a <_eusrstack+0x2001b40a>
     df6:	40078793          	addi	a5,a5,1024
     dfa:	4472                	lw	s0,28(sp)
     dfc:	44e2                	lw	s1,24(sp)
     dfe:	4952                	lw	s2,20(sp)
     e00:	49c2                	lw	s3,16(sp)
     e02:	6105                	addi	sp,sp,32
     e04:	30200073          	mret
     e08:	47a1                	li	a5,8
     e0a:	0cf40da3          	sb	a5,219(s0)
     e0e:	bf6d                	j	dc8 <USBHS_IRQHandler+0x40>
     e10:	4785                	li	a5,1
     e12:	fcf71de3          	bne	a4,a5,dec <USBHS_IRQHandler+0x64>
     e16:	0de44783          	lbu	a5,222(s0)
     e1a:	0fc7f793          	andi	a5,a5,252
     e1e:	0027e793          	ori	a5,a5,2
     e22:	0cf40f23          	sb	a5,222(s0)
     e26:	0de44783          	lbu	a5,222(s0)
     e2a:	0087c793          	xori	a5,a5,8
     e2e:	0cf40f23          	sb	a5,222(s0)
     e32:	820189a3          	sb	zero,-1997(gp) # 2000012b <s_ep1_in_busy>
     e36:	a97ff0ef          	jal	ra,8cc <gs_can_handle_bulk_in_complete>
     e3a:	bf4d                	j	dec <USBHS_IRQHandler+0x64>
     e3c:	fac5                	bnez	a3,dec <USBHS_IRQHandler+0x64>
     e3e:	ef49                	bnez	a4,ed8 <USBHS_IRQHandler+0x150>
     e40:	0407f793          	andi	a5,a5,64
     e44:	d7c5                	beqz	a5,dec <USBHS_IRQHandler+0x64>
     e46:	83518713          	addi	a4,gp,-1995 # 2000012d <s_setup_bmReqType>
     e4a:	245e                	lhu	a5,12(s0)
     e4c:	2314                	lbu	a3,0(a4)
     e4e:	04000613          	li	a2,64
     e52:	07c2                	slli	a5,a5,0x10
     e54:	0606f693          	andi	a3,a3,96
     e58:	83c1                	srli	a5,a5,0x10
     e5a:	06c69763          	bne	a3,a2,ec8 <USBHS_IRQHandler+0x140>
     e5e:	2318                	lbu	a4,0(a4)
     e60:	0762                	slli	a4,a4,0x18
     e62:	8761                	srai	a4,a4,0x18
     e64:	06074263          	bltz	a4,ec8 <USBHS_IRQHandler+0x140>
     e68:	83e18713          	addi	a4,gp,-1986 # 20000136 <s_setup_out_received>
     e6c:	2312                	lhu	a2,0(a4)
     e6e:	97b2                	add	a5,a5,a2
     e70:	07c2                	slli	a5,a5,0x10
     e72:	83c1                	srli	a5,a5,0x10
     e74:	a31e                	sh	a5,0(a4)
     e76:	84218793          	addi	a5,gp,-1982 # 2000013a <s_setup_wLength>
     e7a:	2392                	lhu	a2,0(a5)
     e7c:	00c6fa63          	bgeu	a3,a2,e90 <USBHS_IRQHandler+0x108>
     e80:	47ad                	li	a5,11
     e82:	0cf40d23          	sb	a5,218(s0)
     e86:	0cf40da3          	sb	a5,219(s0)
     e8a:	4789                	li	a5,2
     e8c:	a43c                	sb	a5,10(s0)
     e8e:	b7b5                	j	dfa <USBHS_IRQHandler+0x72>
     e90:	231a                	lhu	a4,0(a4)
     e92:	2396                	lhu	a3,0(a5)
     e94:	02d76363          	bltu	a4,a3,eba <USBHS_IRQHandler+0x132>
     e98:	8341c503          	lbu	a0,-1996(gp) # 2000012c <s_setup_bRequest>
     e9c:	8441d583          	lhu	a1,-1980(gp) # 2000013c <s_setup_wValue>
     ea0:	8401d603          	lhu	a2,-1984(gp) # 20000138 <s_setup_wIndex>
     ea4:	239a                	lhu	a4,0(a5)
     ea6:	b0018693          	addi	a3,gp,-1280 # 200003f8 <s_ep0_buf>
     eaa:	95fff0ef          	jal	ra,808 <gs_can_handle_vendor_setup_out>
     eae:	47a1                	li	a5,8
     eb0:	0c041c23          	sh	zero,216(s0)
     eb4:	0cf40d23          	sb	a5,218(s0)
     eb8:	bf15                	j	dec <USBHS_IRQHandler+0x64>
     eba:	0db44783          	lbu	a5,219(s0)
     ebe:	0087c793          	xori	a5,a5,8
     ec2:	0cf40da3          	sb	a5,219(s0)
     ec6:	b71d                	j	dec <USBHS_IRQHandler+0x64>
     ec8:	400237b7          	lui	a5,0x40023
     ecc:	4c079c23          	sh	zero,1240(a5) # 400234d8 <_eusrstack+0x2001b4d8>
     ed0:	4721                	li	a4,8
     ed2:	4ce78d23          	sb	a4,1242(a5)
     ed6:	bf19                	j	dec <USBHS_IRQHandler+0x64>
     ed8:	4689                	li	a3,2
     eda:	f0d719e3          	bne	a4,a3,dec <USBHS_IRQHandler+0x64>
     ede:	0407f793          	andi	a5,a5,64
     ee2:	f00785e3          	beqz	a5,dec <USBHS_IRQHandler+0x64>
     ee6:	245a                	lhu	a4,12(s0)
     ee8:	0e344783          	lbu	a5,227(s0)
     eec:	0087c793          	xori	a5,a5,8
     ef0:	0ef401a3          	sb	a5,227(s0)
     ef4:	47cd                	li	a5,19
     ef6:	eee7fbe3          	bgeu	a5,a4,dec <USBHS_IRQHandler+0x64>
     efa:	0e344783          	lbu	a5,227(s0)
     efe:	d4018513          	addi	a0,gp,-704 # 20000638 <s_ep2_out_buf>
     f02:	0fc7f793          	andi	a5,a5,252
     f06:	0027e793          	ori	a5,a5,2
     f0a:	0ef401a3          	sb	a5,227(s0)
     f0e:	98bff0ef          	jal	ra,898 <gs_can_handle_bulk_out>
     f12:	bde9                	j	dec <USBHS_IRQHandler+0x64>
     f14:	02077793          	andi	a5,a4,32
     f18:	32078563          	beqz	a5,1242 <USBHS_IRQHandler+0x4ba>
     f1c:	47a9                	li	a5,10
     f1e:	0cf40d23          	sb	a5,218(s0)
     f22:	0cf40da3          	sb	a5,219(s0)
     f26:	b0018693          	addi	a3,gp,-1280 # 200003f8 <s_ep0_buf>
     f2a:	2298                	lbu	a4,0(a3)
     f2c:	83518313          	addi	t1,gp,-1995 # 2000012d <s_setup_bmReqType>
     f30:	00e30023          	sb	a4,0(t1)
     f34:	3298                	lbu	a4,1(a3)
     f36:	0026d803          	lhu	a6,2(a3) # 40021002 <_eusrstack+0x20019002>
     f3a:	83418513          	addi	a0,gp,-1996 # 2000012c <s_setup_bRequest>
     f3e:	a118                	sb	a4,0(a0)
     f40:	0046de03          	lhu	t3,4(a3)
     f44:	84418593          	addi	a1,gp,-1980 # 2000013c <s_setup_wValue>
     f48:	01059023          	sh	a6,0(a1)
     f4c:	84018813          	addi	a6,gp,-1984 # 20000138 <s_setup_wIndex>
     f50:	01c81023          	sh	t3,0(a6)
     f54:	0066de03          	lhu	t3,6(a3)
     f58:	84218693          	addi	a3,gp,-1982 # 2000013a <s_setup_wLength>
     f5c:	01c69023          	sh	t3,0(a3)
     f60:	82019f23          	sh	zero,-1986(gp) # 20000136 <s_setup_out_received>
     f64:	00034683          	lbu	a3,0(t1)
     f68:	8201ac23          	sw	zero,-1992(gp) # 20000130 <s_setup_in_ptr>
     f6c:	82019e23          	sh	zero,-1988(gp) # 20000134 <s_setup_in_remaining>
     f70:	0606f693          	andi	a3,a3,96
     f74:	04000313          	li	t1,64
     f78:	83c18913          	addi	s2,gp,-1988 # 20000134 <s_setup_in_remaining>
     f7c:	83518493          	addi	s1,gp,-1995 # 2000012d <s_setup_bmReqType>
     f80:	83418613          	addi	a2,gp,-1996 # 2000012c <s_setup_bRequest>
     f84:	84218413          	addi	s0,gp,-1982 # 2000013a <s_setup_wLength>
     f88:	84418713          	addi	a4,gp,-1980 # 2000013c <s_setup_wValue>
     f8c:	84018893          	addi	a7,gp,-1984 # 20000138 <s_setup_wIndex>
     f90:	b0018793          	addi	a5,gp,-1280 # 200003f8 <s_ep0_buf>
     f94:	83818993          	addi	s3,gp,-1992 # 20000130 <s_setup_in_ptr>
     f98:	04669263          	bne	a3,t1,fdc <USBHS_IRQHandler+0x254>
     f9c:	209c                	lbu	a5,0(s1)
     f9e:	07e2                	slli	a5,a5,0x18
     fa0:	87e1                	srai	a5,a5,0x18
     fa2:	1a07dd63          	bgez	a5,115c <USBHS_IRQHandler+0x3d4>
     fa6:	2108                	lbu	a0,0(a0)
     fa8:	218e                	lhu	a1,0(a1)
     faa:	00085603          	lhu	a2,0(a6)
     fae:	2016                	lhu	a3,0(s0)
     fb0:	00a10793          	addi	a5,sp,10
     fb4:	0078                	addi	a4,sp,12
     fb6:	c602                	sw	zero,12(sp)
     fb8:	00011523          	sh	zero,10(sp)
     fbc:	feeff0ef          	jal	ra,7aa <gs_can_handle_vendor_setup_in>
     fc0:	ed69                	bnez	a0,109a <USBHS_IRQHandler+0x312>
     fc2:	201e                	lhu	a5,0(s0)
     fc4:	8538                	lhu	a4,10(sp)
     fc6:	00e7f463          	bgeu	a5,a4,fce <USBHS_IRQHandler+0x246>
     fca:	201e                	lhu	a5,0(s0)
     fcc:	857c                	sh	a5,10(sp)
     fce:	47b2                	lw	a5,12(sp)
     fd0:	00f9a023          	sw	a5,0(s3)
     fd4:	853c                	lhu	a5,10(sp)
     fd6:	00f91023          	sh	a5,0(s2)
     fda:	a249                	j	115c <USBHS_IRQHandler+0x3d4>
     fdc:	2094                	lbu	a3,0(s1)
     fde:	0606f693          	andi	a3,a3,96
     fe2:	eec5                	bnez	a3,109a <USBHS_IRQHandler+0x312>
     fe4:	2214                	lbu	a3,0(a2)
     fe6:	45ad                	li	a1,11
     fe8:	0ff6f693          	andi	a3,a3,255
     fec:	0ad5e763          	bltu	a1,a3,109a <USBHS_IRQHandler+0x312>
     ff0:	658d                	lui	a1,0x3
     ff2:	068a                	slli	a3,a3,0x2
     ff4:	27058593          	addi	a1,a1,624 # 3270 <GSUSB_StrSerial+0x1c>
     ff8:	96ae                	add	a3,a3,a1
     ffa:	4294                	lw	a3,0(a3)
     ffc:	8682                	jr	a3
     ffe:	231e                	lhu	a5,0(a4)
    1000:	4699                	li	a3,6
    1002:	83a1                	srli	a5,a5,0x8
    1004:	17fd                	addi	a5,a5,-1
    1006:	0ff7f793          	andi	a5,a5,255
    100a:	08f6e863          	bltu	a3,a5,109a <USBHS_IRQHandler+0x312>
    100e:	668d                	lui	a3,0x3
    1010:	078a                	slli	a5,a5,0x2
    1012:	2a068693          	addi	a3,a3,672 # 32a0 <GSUSB_StrSerial+0x4c>
    1016:	97b6                	add	a5,a5,a3
    1018:	439c                	lw	a5,0(a5)
    101a:	8782                	jr	a5
    101c:	678d                	lui	a5,0x3
    101e:	1fc7c483          	lbu	s1,508(a5) # 31fc <GSUSB_DeviceDescr>
    1022:	1fc78793          	addi	a5,a5,508
    1026:	201a                	lhu	a4,0(s0)
    1028:	00977563          	bgeu	a4,s1,1032 <USBHS_IRQHandler+0x2aa>
    102c:	2006                	lhu	s1,0(s0)
    102e:	04c2                	slli	s1,s1,0x10
    1030:	80c1                	srli	s1,s1,0x10
    1032:	00f9a023          	sw	a5,0(s3)
    1036:	00991023          	sh	s1,0(s2)
    103a:	3919                	jal	c50 <ep0_tx_chunk>
    103c:	a0b5                	j	10a8 <USBHS_IRQHandler+0x320>
    103e:	400237b7          	lui	a5,0x40023
    1042:	4087c703          	lbu	a4,1032(a5) # 40023408 <_eusrstack+0x2001b408>
    1046:	4685                	li	a3,1
    1048:	8b0d                	andi	a4,a4,3
    104a:	83218793          	addi	a5,gp,-1998 # 2000012a <s_dev_speed>
    104e:	00d71d63          	bne	a4,a3,1068 <USBHS_IRQHandler+0x2e0>
    1052:	a398                	sb	a4,0(a5)
    1054:	678d                	lui	a5,0x3
    1056:	1dc78713          	addi	a4,a5,476 # 31dc <GSUSB_CfgDescr_HS>
    105a:	3324                	lbu	s1,3(a4)
    105c:	2338                	lbu	a4,2(a4)
    105e:	1dc78793          	addi	a5,a5,476
    1062:	04a2                	slli	s1,s1,0x8
    1064:	8cd9                	or	s1,s1,a4
    1066:	b7c1                	j	1026 <USBHS_IRQHandler+0x29e>
    1068:	00078023          	sb	zero,0(a5)
    106c:	678d                	lui	a5,0x3
    106e:	1bc78713          	addi	a4,a5,444 # 31bc <GSUSB_CfgDescr_FS>
    1072:	3324                	lbu	s1,3(a4)
    1074:	2338                	lbu	a4,2(a4)
    1076:	1bc78793          	addi	a5,a5,444
    107a:	04a2                	slli	s1,s1,0x8
    107c:	8cd9                	or	s1,s1,a4
    107e:	b765                	j	1026 <USBHS_IRQHandler+0x29e>
    1080:	231e                	lhu	a5,0(a4)
    1082:	4705                	li	a4,1
    1084:	0ff7f793          	andi	a5,a5,255
    1088:	02e78a63          	beq	a5,a4,10bc <USBHS_IRQHandler+0x334>
    108c:	c39d                	beqz	a5,10b2 <USBHS_IRQHandler+0x32a>
    108e:	4709                	li	a4,2
    1090:	02e78c63          	beq	a5,a4,10c8 <USBHS_IRQHandler+0x340>
    1094:	470d                	li	a4,3
    1096:	02e78f63          	beq	a5,a4,10d4 <USBHS_IRQHandler+0x34c>
    109a:	400237b7          	lui	a5,0x40023
    109e:	472d                	li	a4,11
    10a0:	4ce78d23          	sb	a4,1242(a5) # 400234da <_eusrstack+0x2001b4da>
    10a4:	4ce78da3          	sb	a4,1243(a5)
    10a8:	400237b7          	lui	a5,0x40023
    10ac:	02000713          	li	a4,32
    10b0:	b389                	j	df2 <USBHS_IRQHandler+0x6a>
    10b2:	81c1c483          	lbu	s1,-2020(gp) # 20000114 <GSUSB_StrLang>
    10b6:	81c18793          	addi	a5,gp,-2020 # 20000114 <GSUSB_StrLang>
    10ba:	b7b5                	j	1026 <USBHS_IRQHandler+0x29e>
    10bc:	678d                	lui	a5,0x3
    10be:	21c7c483          	lbu	s1,540(a5) # 321c <GSUSB_StrMfr>
    10c2:	21c78793          	addi	a5,a5,540
    10c6:	b785                	j	1026 <USBHS_IRQHandler+0x29e>
    10c8:	678d                	lui	a5,0x3
    10ca:	2347c483          	lbu	s1,564(a5) # 3234 <GSUSB_StrProd>
    10ce:	23478793          	addi	a5,a5,564
    10d2:	bf91                	j	1026 <USBHS_IRQHandler+0x29e>
    10d4:	678d                	lui	a5,0x3
    10d6:	2547c483          	lbu	s1,596(a5) # 3254 <GSUSB_StrSerial>
    10da:	25478793          	addi	a5,a5,596
    10de:	b7a1                	j	1026 <USBHS_IRQHandler+0x29e>
    10e0:	678d                	lui	a5,0x3
    10e2:	2107c483          	lbu	s1,528(a5) # 3210 <GSUSB_QualifierDescr>
    10e6:	21078793          	addi	a5,a5,528
    10ea:	bf35                	j	1026 <USBHS_IRQHandler+0x29e>
    10ec:	8321c783          	lbu	a5,-1998(gp) # 2000012a <s_dev_speed>
    10f0:	4705                	li	a4,1
    10f2:	02f71963          	bne	a4,a5,1124 <USBHS_IRQHandler+0x39c>
    10f6:	678d                	lui	a5,0x3
    10f8:	1bc78793          	addi	a5,a5,444 # 31bc <GSUSB_CfgDescr_FS>
    10fc:	33a4                	lbu	s1,3(a5)
    10fe:	23bc                	lbu	a5,2(a5)
    1100:	658d                	lui	a1,0x3
    1102:	04a2                	slli	s1,s1,0x8
    1104:	8cdd                	or	s1,s1,a5
    1106:	20000537          	lui	a0,0x20000
    110a:	ffe48613          	addi	a2,s1,-2
    110e:	1be58593          	addi	a1,a1,446 # 31be <GSUSB_CfgDescr_FS+0x2>
    1112:	06650513          	addi	a0,a0,102 # 20000066 <GSUSB_OtherSpeedCfg_HS+0x2>
    1116:	6cf000ef          	jal	ra,1fe4 <memcpy>
    111a:	200007b7          	lui	a5,0x20000
    111e:	06478793          	addi	a5,a5,100 # 20000064 <GSUSB_OtherSpeedCfg_HS>
    1122:	b711                	j	1026 <USBHS_IRQHandler+0x29e>
    1124:	678d                	lui	a5,0x3
    1126:	1dc78793          	addi	a5,a5,476 # 31dc <GSUSB_CfgDescr_HS>
    112a:	33a4                	lbu	s1,3(a5)
    112c:	23bc                	lbu	a5,2(a5)
    112e:	658d                	lui	a1,0x3
    1130:	04a2                	slli	s1,s1,0x8
    1132:	8cdd                	or	s1,s1,a5
    1134:	20000537          	lui	a0,0x20000
    1138:	ffe48613          	addi	a2,s1,-2
    113c:	1de58593          	addi	a1,a1,478 # 31de <GSUSB_CfgDescr_HS+0x2>
    1140:	04650513          	addi	a0,a0,70 # 20000046 <GSUSB_OtherSpeedCfg_FS+0x2>
    1144:	6a1000ef          	jal	ra,1fe4 <memcpy>
    1148:	200007b7          	lui	a5,0x20000
    114c:	04478793          	addi	a5,a5,68 # 20000044 <GSUSB_OtherSpeedCfg_FS>
    1150:	bdd9                	j	1026 <USBHS_IRQHandler+0x29e>
    1152:	231e                	lhu	a5,0(a4)
    1154:	07f7f793          	andi	a5,a5,127
    1158:	82f187a3          	sb	a5,-2001(gp) # 20000127 <s_dev_addr>
    115c:	209c                	lbu	a5,0(s1)
    115e:	07e2                	slli	a5,a5,0x18
    1160:	87e1                	srai	a5,a5,0x18
    1162:	ec07cce3          	bltz	a5,103a <USBHS_IRQHandler+0x2b2>
    1166:	201a                	lhu	a4,0(s0)
    1168:	400237b7          	lui	a5,0x40023
    116c:	40078793          	addi	a5,a5,1024 # 40023400 <_eusrstack+0x2001b400>
    1170:	0742                	slli	a4,a4,0x10
    1172:	8341                	srli	a4,a4,0x10
    1174:	e379                	bnez	a4,123a <USBHS_IRQHandler+0x4b2>
    1176:	0c079c23          	sh	zero,216(a5)
    117a:	4721                	li	a4,8
    117c:	0ce78d23          	sb	a4,218(a5)
    1180:	b725                	j	10a8 <USBHS_IRQHandler+0x320>
    1182:	8301c703          	lbu	a4,-2000(gp) # 20000128 <s_dev_config>
    1186:	a398                	sb	a4,0(a5)
    1188:	00f9a023          	sw	a5,0(s3)
    118c:	4785                	li	a5,1
    118e:	b5a1                	j	fd6 <USBHS_IRQHandler+0x24e>
    1190:	231a                	lhu	a4,0(a4)
    1192:	83018793          	addi	a5,gp,-2000 # 20000128 <s_dev_config>
    1196:	0ff77713          	andi	a4,a4,255
    119a:	a398                	sb	a4,0(a5)
    119c:	239c                	lbu	a5,0(a5)
    119e:	83118713          	addi	a4,gp,-1999 # 20000129 <s_dev_configured>
    11a2:	0ff7f793          	andi	a5,a5,255
    11a6:	00f037b3          	snez	a5,a5
    11aa:	a31c                	sb	a5,0(a4)
    11ac:	231c                	lbu	a5,0(a4)
    11ae:	0ff7f793          	andi	a5,a5,255
    11b2:	d7cd                	beqz	a5,115c <USBHS_IRQHandler+0x3d4>
    11b4:	de0ff0ef          	jal	ra,794 <gs_can_on_enum>
    11b8:	b755                	j	115c <USBHS_IRQHandler+0x3d4>
    11ba:	00078023          	sb	zero,0(a5)
    11be:	b7e9                	j	1188 <USBHS_IRQHandler+0x400>
    11c0:	00079023          	sh	zero,0(a5)
    11c4:	00f9a023          	sw	a5,0(s3)
    11c8:	4789                	li	a5,2
    11ca:	b531                	j	fd6 <USBHS_IRQHandler+0x24e>
    11cc:	209c                	lbu	a5,0(s1)
    11ce:	4689                	li	a3,2
    11d0:	8bfd                	andi	a5,a5,31
    11d2:	f8d795e3          	bne	a5,a3,115c <USBHS_IRQHandler+0x3d4>
    11d6:	231a                	lhu	a4,0(a4)
    11d8:	0ff77713          	andi	a4,a4,255
    11dc:	f341                	bnez	a4,115c <USBHS_IRQHandler+0x3d4>
    11de:	0008d703          	lhu	a4,0(a7)
    11e2:	08100693          	li	a3,129
    11e6:	08f77713          	andi	a4,a4,143
    11ea:	02d71463          	bne	a4,a3,1212 <USBHS_IRQHandler+0x48a>
    11ee:	2218                	lbu	a4,0(a2)
    11f0:	468d                	li	a3,3
    11f2:	4789                	li	a5,2
    11f4:	00e69a63          	bne	a3,a4,1208 <USBHS_IRQHandler+0x480>
    11f8:	400237b7          	lui	a5,0x40023
    11fc:	40078793          	addi	a5,a5,1024 # 40023400 <_eusrstack+0x2001b400>
    1200:	0de7c783          	lbu	a5,222(a5)
    1204:	0037e793          	ori	a5,a5,3
    1208:	40023737          	lui	a4,0x40023
    120c:	4cf70f23          	sb	a5,1246(a4) # 400234de <_eusrstack+0x2001b4de>
    1210:	b7b1                	j	115c <USBHS_IRQHandler+0x3d4>
    1212:	e8f714e3          	bne	a4,a5,109a <USBHS_IRQHandler+0x312>
    1216:	2218                	lbu	a4,0(a2)
    1218:	468d                	li	a3,3
    121a:	4781                	li	a5,0
    121c:	00e69a63          	bne	a3,a4,1230 <USBHS_IRQHandler+0x4a8>
    1220:	400237b7          	lui	a5,0x40023
    1224:	40078793          	addi	a5,a5,1024 # 40023400 <_eusrstack+0x2001b400>
    1228:	0e37c783          	lbu	a5,227(a5)
    122c:	0037e793          	ori	a5,a5,3
    1230:	40023737          	lui	a4,0x40023
    1234:	4ef701a3          	sb	a5,1251(a4) # 400234e3 <_eusrstack+0x2001b4e3>
    1238:	b715                	j	115c <USBHS_IRQHandler+0x3d4>
    123a:	4721                	li	a4,8
    123c:	0ce78da3          	sb	a4,219(a5)
    1240:	b5a5                	j	10a8 <USBHS_IRQHandler+0x320>
    1242:	00177793          	andi	a5,a4,1
    1246:	cf89                	beqz	a5,1260 <USBHS_IRQHandler+0x4d8>
    1248:	820187a3          	sb	zero,-2001(gp) # 20000127 <s_dev_addr>
    124c:	82018823          	sb	zero,-2000(gp) # 20000128 <s_dev_config>
    1250:	820188a3          	sb	zero,-1999(gp) # 20000129 <s_dev_configured>
    1254:	000401a3          	sb	zero,3(s0)
    1258:	99fff0ef          	jal	ra,bf6 <usbhs_endp_init>
    125c:	4785                	li	a5,1
    125e:	b13d                	j	e8c <USBHS_IRQHandler+0x104>
    1260:	00477793          	andi	a5,a4,4
    1264:	c399                	beqz	a5,126a <USBHS_IRQHandler+0x4e2>
    1266:	4791                	li	a5,4
    1268:	b115                	j	e8c <USBHS_IRQHandler+0x104>
    126a:	a438                	sb	a4,10(s0)
    126c:	b679                	j	dfa <USBHS_IRQHandler+0x72>

0000126e <ADC1_2_IRQHandler>:
    126e:	a001                	j	126e <ADC1_2_IRQHandler>

00001270 <handle_reset>:
    1270:	1ffff197          	auipc	gp,0x1ffff
    1274:	68818193          	addi	gp,gp,1672 # 200008f8 <__global_pointer$>
    1278:	20007117          	auipc	sp,0x20007
    127c:	d8810113          	addi	sp,sp,-632 # 20008000 <_eusrstack>
    1280:	00002517          	auipc	a0,0x2
    1284:	0d850513          	addi	a0,a0,216 # 3358 <_data_lma>
    1288:	1ffff597          	auipc	a1,0x1ffff
    128c:	d7858593          	addi	a1,a1,-648 # 20000000 <_data_vma>
    1290:	82818613          	addi	a2,gp,-2008 # 20000120 <_edata>
    1294:	00c5fa63          	bgeu	a1,a2,12a8 <handle_reset+0x38>
    1298:	00052283          	lw	t0,0(a0)
    129c:	0055a023          	sw	t0,0(a1)
    12a0:	0511                	addi	a0,a0,4
    12a2:	0591                	addi	a1,a1,4
    12a4:	fec5eae3          	bltu	a1,a2,1298 <handle_reset+0x28>
    12a8:	82818513          	addi	a0,gp,-2008 # 20000120 <_edata>
    12ac:	f4418593          	addi	a1,gp,-188 # 2000083c <_ebss>
    12b0:	00b57763          	bgeu	a0,a1,12be <handle_reset+0x4e>
    12b4:	00052023          	sw	zero,0(a0)
    12b8:	0511                	addi	a0,a0,4
    12ba:	feb56de3          	bltu	a0,a1,12b4 <handle_reset+0x44>
    12be:	42fd                	li	t0,31
    12c0:	bc029073          	csrw	0xbc0,t0
    12c4:	42ad                	li	t0,11
    12c6:	80429073          	csrw	0x804,t0
    12ca:	000062b7          	lui	t0,0x6
    12ce:	08828293          	addi	t0,t0,136 # 6088 <_data_lma+0x2d30>
    12d2:	30029073          	csrw	mstatus,t0
    12d6:	fffff297          	auipc	t0,0xfffff
    12da:	d2e28293          	addi	t0,t0,-722 # 4 <_einit>
    12de:	0032e293          	ori	t0,t0,3
    12e2:	30529073          	csrw	mtvec,t0
    12e6:	eeaff0ef          	jal	ra,9d0 <SystemInit>
    12ea:	fffff297          	auipc	t0,0xfffff
    12ee:	69c28293          	addi	t0,t0,1692 # 986 <main>
    12f2:	34129073          	csrw	mepc,t0
    12f6:	30200073          	mret

000012fa <CAN_DeInit>:
    12fa:	ef7fe2ef          	jal	t0,1f0 <__riscv_save_0>
    12fe:	400067b7          	lui	a5,0x40006
    1302:	40078793          	addi	a5,a5,1024 # 40006400 <_eusrstack+0x1fffe400>
    1306:	4585                	li	a1,1
    1308:	00f51d63          	bne	a0,a5,1322 <CAN_DeInit+0x28>
    130c:	02000537          	lui	a0,0x2000
    1310:	265000ef          	jal	ra,1d74 <RCC_APB1PeriphResetCmd>
    1314:	4581                	li	a1,0
    1316:	02000537          	lui	a0,0x2000
    131a:	25b000ef          	jal	ra,1d74 <RCC_APB1PeriphResetCmd>
    131e:	ef7fe06f          	j	214 <__riscv_restore_0>
    1322:	04000537          	lui	a0,0x4000
    1326:	24f000ef          	jal	ra,1d74 <RCC_APB1PeriphResetCmd>
    132a:	4581                	li	a1,0
    132c:	04000537          	lui	a0,0x4000
    1330:	b7ed                	j	131a <CAN_DeInit+0x20>

00001332 <CAN_FilterInit>:
    1332:	40006737          	lui	a4,0x40006
    1336:	40070713          	addi	a4,a4,1024 # 40006400 <_eusrstack+0x1fffe400>
    133a:	20072683          	lw	a3,512(a4)
    133e:	253c                	lbu	a5,10(a0)
    1340:	4805                	li	a6,1
    1342:	0016e693          	ori	a3,a3,1
    1346:	20d72023          	sw	a3,512(a4)
    134a:	21c72583          	lw	a1,540(a4)
    134e:	00f81633          	sll	a2,a6,a5
    1352:	fff64693          	not	a3,a2
    1356:	8df5                	and	a1,a1,a3
    1358:	20b72e23          	sw	a1,540(a4)
    135c:	254c                	lbu	a1,12(a0)
    135e:	edbd                	bnez	a1,13dc <CAN_FilterInit+0xaa>
    1360:	20c72583          	lw	a1,524(a4)
    1364:	00255803          	lhu	a6,2(a0) # 4000002 <_data_lma+0x3ffccaa>
    1368:	078e                	slli	a5,a5,0x3
    136a:	8df5                	and	a1,a1,a3
    136c:	20b72623          	sw	a1,524(a4)
    1370:	216e                	lhu	a1,6(a0)
    1372:	97ba                	add	a5,a5,a4
    1374:	215a                	lhu	a4,4(a0)
    1376:	05c2                	slli	a1,a1,0x10
    1378:	0105e5b3          	or	a1,a1,a6
    137c:	24b7a023          	sw	a1,576(a5)
    1380:	210e                	lhu	a1,0(a0)
    1382:	0742                	slli	a4,a4,0x10
    1384:	8f4d                	or	a4,a4,a1
    1386:	24e7a223          	sw	a4,580(a5)
    138a:	3538                	lbu	a4,11(a0)
    138c:	400067b7          	lui	a5,0x40006
    1390:	40078793          	addi	a5,a5,1024 # 40006400 <_eusrstack+0x1fffe400>
    1394:	eb2d                	bnez	a4,1406 <CAN_FilterInit+0xd4>
    1396:	2047a703          	lw	a4,516(a5)
    139a:	8f75                	and	a4,a4,a3
    139c:	20e7a223          	sw	a4,516(a5)
    13a0:	251a                	lhu	a4,8(a0)
    13a2:	400067b7          	lui	a5,0x40006
    13a6:	40078793          	addi	a5,a5,1024 # 40006400 <_eusrstack+0x1fffe400>
    13aa:	e335                	bnez	a4,140e <CAN_FilterInit+0xdc>
    13ac:	2147a703          	lw	a4,532(a5)
    13b0:	8ef9                	and	a3,a3,a4
    13b2:	20d7aa23          	sw	a3,532(a5)
    13b6:	4918                	lw	a4,16(a0)
    13b8:	4785                	li	a5,1
    13ba:	00f71963          	bne	a4,a5,13cc <CAN_FilterInit+0x9a>
    13be:	400067b7          	lui	a5,0x40006
    13c2:	61c7a703          	lw	a4,1564(a5) # 4000661c <_eusrstack+0x1fffe61c>
    13c6:	8e59                	or	a2,a2,a4
    13c8:	60c7ae23          	sw	a2,1564(a5)
    13cc:	400067b7          	lui	a5,0x40006
    13d0:	6007a703          	lw	a4,1536(a5) # 40006600 <_eusrstack+0x1fffe600>
    13d4:	9b79                	andi	a4,a4,-2
    13d6:	60e7a023          	sw	a4,1536(a5)
    13da:	8082                	ret
    13dc:	fb0597e3          	bne	a1,a6,138a <CAN_FilterInit+0x58>
    13e0:	20c72583          	lw	a1,524(a4)
    13e4:	00255803          	lhu	a6,2(a0)
    13e8:	078e                	slli	a5,a5,0x3
    13ea:	8dd1                	or	a1,a1,a2
    13ec:	20b72623          	sw	a1,524(a4)
    13f0:	210e                	lhu	a1,0(a0)
    13f2:	97ba                	add	a5,a5,a4
    13f4:	215a                	lhu	a4,4(a0)
    13f6:	05c2                	slli	a1,a1,0x10
    13f8:	0105e5b3          	or	a1,a1,a6
    13fc:	24b7a023          	sw	a1,576(a5)
    1400:	0742                	slli	a4,a4,0x10
    1402:	216e                	lhu	a1,6(a0)
    1404:	b741                	j	1384 <CAN_FilterInit+0x52>
    1406:	2047a703          	lw	a4,516(a5)
    140a:	8f51                	or	a4,a4,a2
    140c:	bf41                	j	139c <CAN_FilterInit+0x6a>
    140e:	4685                	li	a3,1
    1410:	fad713e3          	bne	a4,a3,13b6 <CAN_FilterInit+0x84>
    1414:	2147a703          	lw	a4,532(a5)
    1418:	8f51                	or	a4,a4,a2
    141a:	20e7aa23          	sw	a4,532(a5)
    141e:	bf61                	j	13b6 <CAN_FilterInit+0x84>

00001420 <CAN_SlaveStartBank>:
    1420:	400067b7          	lui	a5,0x40006
    1424:	6007a703          	lw	a4,1536(a5) # 40006600 <_eusrstack+0x1fffe600>
    1428:	76f1                	lui	a3,0xffffc
    142a:	0f168693          	addi	a3,a3,241 # ffffc0f1 <_eusrstack+0xdfff40f1>
    142e:	00176713          	ori	a4,a4,1
    1432:	60e7a023          	sw	a4,1536(a5)
    1436:	6007a703          	lw	a4,1536(a5)
    143a:	0522                	slli	a0,a0,0x8
    143c:	8f75                	and	a4,a4,a3
    143e:	60e7a023          	sw	a4,1536(a5)
    1442:	6007a703          	lw	a4,1536(a5)
    1446:	8d59                	or	a0,a0,a4
    1448:	60a7a023          	sw	a0,1536(a5)
    144c:	6007a703          	lw	a4,1536(a5)
    1450:	9b79                	andi	a4,a4,-2
    1452:	60e7a023          	sw	a4,1536(a5)
    1456:	8082                	ret

00001458 <CAN_Init>:
    1458:	d99fe2ef          	jal	t0,1f0 <__riscv_save_0>
    145c:	842a                	mv	s0,a0
    145e:	892e                	mv	s2,a1
    1460:	2b59                	jal	19f6 <DBGMCU_GetCHIPID>
    1462:	8111                	srli	a0,a0,0x4
    1464:	893d                	andi	a0,a0,15
    1466:	1571                	addi	a0,a0,-4
    1468:	478d                	li	a5,3
    146a:	16a7ed63          	bltu	a5,a0,15e4 <CAN_Init+0x18c>
    146e:	400067b7          	lui	a5,0x40006
    1472:	40078793          	addi	a5,a5,1024 # 40006400 <_eusrstack+0x1fffe400>
    1476:	04f41363          	bne	s0,a5,14bc <CAN_Init+0x64>
    147a:	400217b7          	lui	a5,0x40021
    147e:	4b98                	lw	a4,16(a5)
    1480:	020006b7          	lui	a3,0x2000
    1484:	8f55                	or	a4,a4,a3
    1486:	cb98                	sw	a4,16(a5)
    1488:	4b98                	lw	a4,16(a5)
    148a:	fe0006b7          	lui	a3,0xfe000
    148e:	16fd                	addi	a3,a3,-1
    1490:	8f75                	and	a4,a4,a3
    1492:	cb98                	sw	a4,16(a5)
    1494:	401c                	lw	a5,0(s0)
    1496:	9bf5                	andi	a5,a5,-3
    1498:	c01c                	sw	a5,0(s0)
    149a:	401c                	lw	a5,0(s0)
    149c:	0017e793          	ori	a5,a5,1
    14a0:	c01c                	sw	a5,0(s0)
    14a2:	67c1                	lui	a5,0x10
    14a4:	4058                	lw	a4,4(s0)
    14a6:	8b05                	andi	a4,a4,1
    14a8:	e319                	bnez	a4,14ae <CAN_Init+0x56>
    14aa:	17fd                	addi	a5,a5,-1
    14ac:	ffe5                	bnez	a5,14a4 <CAN_Init+0x4c>
    14ae:	405c                	lw	a5,4(s0)
    14b0:	0017f713          	andi	a4,a5,1
    14b4:	e70d                	bnez	a4,14de <CAN_Init+0x86>
    14b6:	4501                	li	a0,0
    14b8:	d5dfe06f          	j	214 <__riscv_restore_0>
    14bc:	400077b7          	lui	a5,0x40007
    14c0:	80078793          	addi	a5,a5,-2048 # 40006800 <_eusrstack+0x1fffe800>
    14c4:	fcf418e3          	bne	s0,a5,1494 <CAN_Init+0x3c>
    14c8:	400217b7          	lui	a5,0x40021
    14cc:	4b98                	lw	a4,16(a5)
    14ce:	040006b7          	lui	a3,0x4000
    14d2:	8f55                	or	a4,a4,a3
    14d4:	cb98                	sw	a4,16(a5)
    14d6:	4b98                	lw	a4,16(a5)
    14d8:	fc0006b7          	lui	a3,0xfc000
    14dc:	bf4d                	j	148e <CAN_Init+0x36>
    14de:	40021637          	lui	a2,0x40021
    14e2:	4254                	lw	a3,4(a2)
    14e4:	200007b7          	lui	a5,0x20000
    14e8:	0f87a783          	lw	a5,248(a5) # 200000f8 <SystemCoreClock>
    14ec:	82a1                	srli	a3,a3,0x8
    14ee:	8a91                	andi	a3,a3,4
    14f0:	ca81                	beqz	a3,1500 <CAN_Init+0xa8>
    14f2:	4258                	lw	a4,4(a2)
    14f4:	8321                	srli	a4,a4,0x8
    14f6:	00377693          	andi	a3,a4,3
    14fa:	4709                	li	a4,2
    14fc:	00d71733          	sll	a4,a4,a3
    1500:	02e7d7b3          	divu	a5,a5,a4
    1504:	003d1737          	lui	a4,0x3d1
    1508:	90070713          	addi	a4,a4,-1792 # 3d0900 <_data_lma+0x3cd5a8>
    150c:	02e7d7b3          	divu	a5,a5,a4
    1510:	c1100737          	lui	a4,0xc1100
    1514:	17fd                	addi	a5,a5,-1
    1516:	8fd9                	or	a5,a5,a4
    1518:	cc5c                	sw	a5,28(s0)
    151a:	401c                	lw	a5,0(s0)
    151c:	9bf9                	andi	a5,a5,-2
    151e:	c01c                	sw	a5,0(s0)
    1520:	67c1                	lui	a5,0x10
    1522:	4058                	lw	a4,4(s0)
    1524:	8b05                	andi	a4,a4,1
    1526:	c319                	beqz	a4,152c <CAN_Init+0xd4>
    1528:	17fd                	addi	a5,a5,-1
    152a:	ffe5                	bnez	a5,1522 <CAN_Init+0xca>
    152c:	405c                	lw	a5,4(s0)
    152e:	8b85                	andi	a5,a5,1
    1530:	f3d9                	bnez	a5,14b6 <CAN_Init+0x5e>
    1532:	400064b7          	lui	s1,0x40006
    1536:	60c4a783          	lw	a5,1548(s1) # 4000660c <_eusrstack+0x1fffe60c>
    153a:	4505                	li	a0,1
    153c:	0037e793          	ori	a5,a5,3
    1540:	60f4a623          	sw	a5,1548(s1)
    1544:	6404a023          	sw	zero,1600(s1)
    1548:	6404a223          	sw	zero,1604(s1)
    154c:	6404a423          	sw	zero,1608(s1)
    1550:	6404a623          	sw	zero,1612(s1)
    1554:	61c4a783          	lw	a5,1564(s1)
    1558:	0037e793          	ori	a5,a5,3
    155c:	60f4ae23          	sw	a5,1564(s1)
    1560:	6004a783          	lw	a5,1536(s1)
    1564:	9bf9                	andi	a5,a5,-2
    1566:	60f4a023          	sw	a5,1536(s1)
    156a:	3d5d                	jal	1420 <CAN_SlaveStartBank>
    156c:	40048793          	addi	a5,s1,1024
    1570:	14f41363          	bne	s0,a5,16b6 <CAN_Init+0x25e>
    1574:	5804a783          	lw	a5,1408(s1)
    1578:	40006737          	lui	a4,0x40006
    157c:	0037e793          	ori	a5,a5,3
    1580:	58f4a023          	sw	a5,1408(s1)
    1584:	40c72783          	lw	a5,1036(a4) # 4000640c <_eusrstack+0x1fffe40c>
    1588:	8b8d                	andi	a5,a5,3
    158a:	dfed                	beqz	a5,1584 <CAN_Init+0x12c>
    158c:	03800793          	li	a5,56
    1590:	40f72623          	sw	a5,1036(a4)
    1594:	400217b7          	lui	a5,0x40021
    1598:	4b98                	lw	a4,16(a5)
    159a:	020006b7          	lui	a3,0x2000
    159e:	8f55                	or	a4,a4,a3
    15a0:	cb98                	sw	a4,16(a5)
    15a2:	4b98                	lw	a4,16(a5)
    15a4:	fe0006b7          	lui	a3,0xfe000
    15a8:	16fd                	addi	a3,a3,-1
    15aa:	8f75                	and	a4,a4,a3
    15ac:	cb98                	sw	a4,16(a5)
    15ae:	400067b7          	lui	a5,0x40006
    15b2:	6007a703          	lw	a4,1536(a5) # 40006600 <_eusrstack+0x1fffe600>
    15b6:	4505                	li	a0,1
    15b8:	00176713          	ori	a4,a4,1
    15bc:	60e7a023          	sw	a4,1536(a5)
    15c0:	60c7a703          	lw	a4,1548(a5)
    15c4:	00376713          	ori	a4,a4,3
    15c8:	60e7a623          	sw	a4,1548(a5)
    15cc:	61c7a703          	lw	a4,1564(a5)
    15d0:	00376713          	ori	a4,a4,3
    15d4:	60e7ae23          	sw	a4,1564(a5)
    15d8:	6007a703          	lw	a4,1536(a5)
    15dc:	9b79                	andi	a4,a4,-2
    15de:	60e7a023          	sw	a4,1536(a5)
    15e2:	3d3d                	jal	1420 <CAN_SlaveStartBank>
    15e4:	401c                	lw	a5,0(s0)
    15e6:	9bf5                	andi	a5,a5,-3
    15e8:	c01c                	sw	a5,0(s0)
    15ea:	401c                	lw	a5,0(s0)
    15ec:	0017e793          	ori	a5,a5,1
    15f0:	c01c                	sw	a5,0(s0)
    15f2:	67c1                	lui	a5,0x10
    15f4:	4058                	lw	a4,4(s0)
    15f6:	8b05                	andi	a4,a4,1
    15f8:	e319                	bnez	a4,15fe <CAN_Init+0x1a6>
    15fa:	17fd                	addi	a5,a5,-1
    15fc:	ffe5                	bnez	a5,15f4 <CAN_Init+0x19c>
    15fe:	405c                	lw	a5,4(s0)
    1600:	8b85                	andi	a5,a5,1
    1602:	ea078ae3          	beqz	a5,14b6 <CAN_Init+0x5e>
    1606:	00892703          	lw	a4,8(s2)
    160a:	4785                	li	a5,1
    160c:	0ef71663          	bne	a4,a5,16f8 <CAN_Init+0x2a0>
    1610:	401c                	lw	a5,0(s0)
    1612:	0807e793          	ori	a5,a5,128
    1616:	00c92703          	lw	a4,12(s2)
    161a:	c01c                	sw	a5,0(s0)
    161c:	4785                	li	a5,1
    161e:	0ef71163          	bne	a4,a5,1700 <CAN_Init+0x2a8>
    1622:	401c                	lw	a5,0(s0)
    1624:	0407e793          	ori	a5,a5,64
    1628:	01092703          	lw	a4,16(s2)
    162c:	c01c                	sw	a5,0(s0)
    162e:	4785                	li	a5,1
    1630:	0cf71c63          	bne	a4,a5,1708 <CAN_Init+0x2b0>
    1634:	401c                	lw	a5,0(s0)
    1636:	0207e793          	ori	a5,a5,32
    163a:	01492703          	lw	a4,20(s2)
    163e:	c01c                	sw	a5,0(s0)
    1640:	4785                	li	a5,1
    1642:	0cf71763          	bne	a4,a5,1710 <CAN_Init+0x2b8>
    1646:	401c                	lw	a5,0(s0)
    1648:	0107e793          	ori	a5,a5,16
    164c:	01892703          	lw	a4,24(s2)
    1650:	c01c                	sw	a5,0(s0)
    1652:	4785                	li	a5,1
    1654:	0cf71163          	bne	a4,a5,1716 <CAN_Init+0x2be>
    1658:	401c                	lw	a5,0(s0)
    165a:	0087e793          	ori	a5,a5,8
    165e:	01c92703          	lw	a4,28(s2)
    1662:	c01c                	sw	a5,0(s0)
    1664:	4785                	li	a5,1
    1666:	0af71b63          	bne	a4,a5,171c <CAN_Init+0x2c4>
    166a:	401c                	lw	a5,0(s0)
    166c:	0047e793          	ori	a5,a5,4
    1670:	c01c                	sw	a5,0(s0)
    1672:	00294783          	lbu	a5,2(s2)
    1676:	00394703          	lbu	a4,3(s2)
    167a:	07fa                	slli	a5,a5,0x1e
    167c:	0762                	slli	a4,a4,0x18
    167e:	8fd9                	or	a5,a5,a4
    1680:	00494703          	lbu	a4,4(s2)
    1684:	0742                	slli	a4,a4,0x10
    1686:	8fd9                	or	a5,a5,a4
    1688:	00594703          	lbu	a4,5(s2)
    168c:	0752                	slli	a4,a4,0x14
    168e:	8fd9                	or	a5,a5,a4
    1690:	00095703          	lhu	a4,0(s2)
    1694:	177d                	addi	a4,a4,-1
    1696:	8fd9                	or	a5,a5,a4
    1698:	cc5c                	sw	a5,28(s0)
    169a:	401c                	lw	a5,0(s0)
    169c:	9bf9                	andi	a5,a5,-2
    169e:	c01c                	sw	a5,0(s0)
    16a0:	67c1                	lui	a5,0x10
    16a2:	4058                	lw	a4,4(s0)
    16a4:	8b05                	andi	a4,a4,1
    16a6:	c319                	beqz	a4,16ac <CAN_Init+0x254>
    16a8:	17fd                	addi	a5,a5,-1
    16aa:	ffe5                	bnez	a5,16a2 <CAN_Init+0x24a>
    16ac:	4048                	lw	a0,4(s0)
    16ae:	fff54513          	not	a0,a0
    16b2:	8905                	andi	a0,a0,1
    16b4:	b511                	j	14b8 <CAN_Init+0x60>
    16b6:	400077b7          	lui	a5,0x40007
    16ba:	80078713          	addi	a4,a5,-2048 # 40006800 <_eusrstack+0x1fffe800>
    16be:	eee418e3          	bne	s0,a4,15ae <CAN_Init+0x156>
    16c2:	9807a703          	lw	a4,-1664(a5)
    16c6:	00376713          	ori	a4,a4,3
    16ca:	98e7a023          	sw	a4,-1664(a5)
    16ce:	40007737          	lui	a4,0x40007
    16d2:	80c72783          	lw	a5,-2036(a4) # 4000680c <_eusrstack+0x1fffe80c>
    16d6:	8b8d                	andi	a5,a5,3
    16d8:	dfed                	beqz	a5,16d2 <CAN_Init+0x27a>
    16da:	03800793          	li	a5,56
    16de:	80f72623          	sw	a5,-2036(a4)
    16e2:	400217b7          	lui	a5,0x40021
    16e6:	4b98                	lw	a4,16(a5)
    16e8:	040006b7          	lui	a3,0x4000
    16ec:	8f55                	or	a4,a4,a3
    16ee:	cb98                	sw	a4,16(a5)
    16f0:	4b98                	lw	a4,16(a5)
    16f2:	fc0006b7          	lui	a3,0xfc000
    16f6:	bd4d                	j	15a8 <CAN_Init+0x150>
    16f8:	401c                	lw	a5,0(s0)
    16fa:	f7f7f793          	andi	a5,a5,-129
    16fe:	bf21                	j	1616 <CAN_Init+0x1be>
    1700:	401c                	lw	a5,0(s0)
    1702:	fbf7f793          	andi	a5,a5,-65
    1706:	b70d                	j	1628 <CAN_Init+0x1d0>
    1708:	401c                	lw	a5,0(s0)
    170a:	fdf7f793          	andi	a5,a5,-33
    170e:	b735                	j	163a <CAN_Init+0x1e2>
    1710:	401c                	lw	a5,0(s0)
    1712:	9bbd                	andi	a5,a5,-17
    1714:	bf25                	j	164c <CAN_Init+0x1f4>
    1716:	401c                	lw	a5,0(s0)
    1718:	9bdd                	andi	a5,a5,-9
    171a:	b791                	j	165e <CAN_Init+0x206>
    171c:	401c                	lw	a5,0(s0)
    171e:	9bed                	andi	a5,a5,-5
    1720:	bf81                	j	1670 <CAN_Init+0x218>

00001722 <CAN_Transmit>:
    1722:	451c                	lw	a5,8(a0)
    1724:	00579713          	slli	a4,a5,0x5
    1728:	08074e63          	bltz	a4,17c4 <CAN_Transmit+0xa2>
    172c:	451c                	lw	a5,8(a0)
    172e:	00479713          	slli	a4,a5,0x4
    1732:	08074b63          	bltz	a4,17c8 <CAN_Transmit+0xa6>
    1736:	451c                	lw	a5,8(a0)
    1738:	4691                	li	a3,4
    173a:	00379713          	slli	a4,a5,0x3
    173e:	08075163          	bgez	a4,17c0 <CAN_Transmit+0x9e>
    1742:	4689                	li	a3,2
    1744:	00469793          	slli	a5,a3,0x4
    1748:	97aa                	add	a5,a5,a0
    174a:	1807a703          	lw	a4,384(a5) # 40021180 <_eusrstack+0x20019180>
    174e:	8b05                	andi	a4,a4,1
    1750:	18e7a023          	sw	a4,384(a5)
    1754:	2590                	lbu	a2,8(a1)
    1756:	3588                	lbu	a0,9(a1)
    1758:	ea35                	bnez	a2,17cc <CAN_Transmit+0xaa>
    175a:	4198                	lw	a4,0(a1)
    175c:	1807a603          	lw	a2,384(a5)
    1760:	0756                	slli	a4,a4,0x15
    1762:	8f49                	or	a4,a4,a0
    1764:	8f51                	or	a4,a4,a2
    1766:	18e7a023          	sw	a4,384(a5)
    176a:	25b8                	lbu	a4,10(a1)
    176c:	8b3d                	andi	a4,a4,15
    176e:	a5b8                	sb	a4,10(a1)
    1770:	1847a603          	lw	a2,388(a5)
    1774:	9a41                	andi	a2,a2,-16
    1776:	18c7a223          	sw	a2,388(a5)
    177a:	1847a603          	lw	a2,388(a5)
    177e:	8f51                	or	a4,a4,a2
    1780:	18e7a223          	sw	a4,388(a5)
    1784:	25d0                	lbu	a2,12(a1)
    1786:	35b8                	lbu	a4,11(a1)
    1788:	0622                	slli	a2,a2,0x8
    178a:	8e59                	or	a2,a2,a4
    178c:	35d8                	lbu	a4,13(a1)
    178e:	0742                	slli	a4,a4,0x10
    1790:	8e59                	or	a2,a2,a4
    1792:	25f8                	lbu	a4,14(a1)
    1794:	0762                	slli	a4,a4,0x18
    1796:	8f51                	or	a4,a4,a2
    1798:	18e7a423          	sw	a4,392(a5)
    179c:	2990                	lbu	a2,16(a1)
    179e:	35f8                	lbu	a4,15(a1)
    17a0:	0622                	slli	a2,a2,0x8
    17a2:	8e59                	or	a2,a2,a4
    17a4:	3998                	lbu	a4,17(a1)
    17a6:	0742                	slli	a4,a4,0x10
    17a8:	8e59                	or	a2,a2,a4
    17aa:	29b8                	lbu	a4,18(a1)
    17ac:	0762                	slli	a4,a4,0x18
    17ae:	8f51                	or	a4,a4,a2
    17b0:	18e7a623          	sw	a4,396(a5)
    17b4:	1807a703          	lw	a4,384(a5)
    17b8:	00176713          	ori	a4,a4,1
    17bc:	18e7a023          	sw	a4,384(a5)
    17c0:	8536                	mv	a0,a3
    17c2:	8082                	ret
    17c4:	4681                	li	a3,0
    17c6:	bfbd                	j	1744 <CAN_Transmit+0x22>
    17c8:	4685                	li	a3,1
    17ca:	bfad                	j	1744 <CAN_Transmit+0x22>
    17cc:	41d8                	lw	a4,4(a1)
    17ce:	1807a803          	lw	a6,384(a5)
    17d2:	070e                	slli	a4,a4,0x3
    17d4:	8f49                	or	a4,a4,a0
    17d6:	8f51                	or	a4,a4,a2
    17d8:	01076733          	or	a4,a4,a6
    17dc:	b769                	j	1766 <CAN_Transmit+0x44>

000017de <CAN_Receive>:
    17de:	00459793          	slli	a5,a1,0x4
    17e2:	97aa                	add	a5,a5,a0
    17e4:	1b07a703          	lw	a4,432(a5)
    17e8:	8b11                	andi	a4,a4,4
    17ea:	a618                	sb	a4,8(a2)
    17ec:	e72d                	bnez	a4,1856 <CAN_Receive+0x78>
    17ee:	1b07a703          	lw	a4,432(a5)
    17f2:	8355                	srli	a4,a4,0x15
    17f4:	c218                	sw	a4,0(a2)
    17f6:	1b07a703          	lw	a4,432(a5)
    17fa:	8b09                	andi	a4,a4,2
    17fc:	b618                	sb	a4,9(a2)
    17fe:	1b47a703          	lw	a4,436(a5)
    1802:	8b3d                	andi	a4,a4,15
    1804:	a638                	sb	a4,10(a2)
    1806:	1b47a703          	lw	a4,436(a5)
    180a:	8321                	srli	a4,a4,0x8
    180c:	ba38                	sb	a4,19(a2)
    180e:	1b87a703          	lw	a4,440(a5)
    1812:	b638                	sb	a4,11(a2)
    1814:	1b87a703          	lw	a4,440(a5)
    1818:	8321                	srli	a4,a4,0x8
    181a:	a658                	sb	a4,12(a2)
    181c:	1b87a703          	lw	a4,440(a5)
    1820:	8341                	srli	a4,a4,0x10
    1822:	b658                	sb	a4,13(a2)
    1824:	1b87a703          	lw	a4,440(a5)
    1828:	8361                	srli	a4,a4,0x18
    182a:	a678                	sb	a4,14(a2)
    182c:	1bc7a703          	lw	a4,444(a5)
    1830:	b678                	sb	a4,15(a2)
    1832:	1bc7a703          	lw	a4,444(a5)
    1836:	8321                	srli	a4,a4,0x8
    1838:	aa18                	sb	a4,16(a2)
    183a:	1bc7a703          	lw	a4,444(a5)
    183e:	8341                	srli	a4,a4,0x10
    1840:	ba18                	sb	a4,17(a2)
    1842:	1bc7a783          	lw	a5,444(a5)
    1846:	83e1                	srli	a5,a5,0x18
    1848:	aa3c                	sb	a5,18(a2)
    184a:	e999                	bnez	a1,1860 <CAN_Receive+0x82>
    184c:	455c                	lw	a5,12(a0)
    184e:	0207e793          	ori	a5,a5,32
    1852:	c55c                	sw	a5,12(a0)
    1854:	8082                	ret
    1856:	1b07a703          	lw	a4,432(a5)
    185a:	830d                	srli	a4,a4,0x3
    185c:	c258                	sw	a4,4(a2)
    185e:	bf61                	j	17f6 <CAN_Receive+0x18>
    1860:	491c                	lw	a5,16(a0)
    1862:	0207e793          	ori	a5,a5,32
    1866:	c91c                	sw	a5,16(a0)
    1868:	8082                	ret

0000186a <CAN_MessagePending>:
    186a:	e589                	bnez	a1,1874 <CAN_MessagePending+0xa>
    186c:	455c                	lw	a5,12(a0)
    186e:	8b8d                	andi	a5,a5,3
    1870:	853e                	mv	a0,a5
    1872:	8082                	ret
    1874:	4705                	li	a4,1
    1876:	4781                	li	a5,0
    1878:	fee59ce3          	bne	a1,a4,1870 <CAN_MessagePending+0x6>
    187c:	491c                	lw	a5,16(a0)
    187e:	bfc5                	j	186e <CAN_MessagePending+0x4>

00001880 <CAN_ITConfig>:
    1880:	495c                	lw	a5,20(a0)
    1882:	c601                	beqz	a2,188a <CAN_ITConfig+0xa>
    1884:	8ddd                	or	a1,a1,a5
    1886:	c94c                	sw	a1,20(a0)
    1888:	8082                	ret
    188a:	fff5c593          	not	a1,a1
    188e:	8dfd                	and	a1,a1,a5
    1890:	bfdd                	j	1886 <CAN_ITConfig+0x6>

00001892 <CAN_GetITStatus>:
    1892:	495c                	lw	a5,20(a0)
    1894:	8fed                	and	a5,a5,a1
    1896:	c395                	beqz	a5,18ba <CAN_GetITStatus+0x28>
    1898:	04000793          	li	a5,64
    189c:	0af58363          	beq	a1,a5,1942 <CAN_GetITStatus+0xb0>
    18a0:	02b7ec63          	bltu	a5,a1,18d8 <CAN_GetITStatus+0x46>
    18a4:	4791                	li	a5,4
    18a6:	08f58663          	beq	a1,a5,1932 <CAN_GetITStatus+0xa0>
    18aa:	00b7ea63          	bltu	a5,a1,18be <CAN_GetITStatus+0x2c>
    18ae:	4785                	li	a5,1
    18b0:	06f58663          	beq	a1,a5,191c <CAN_GetITStatus+0x8a>
    18b4:	4789                	li	a5,2
    18b6:	06f58b63          	beq	a1,a5,192c <CAN_GetITStatus+0x9a>
    18ba:	4501                	li	a0,0
    18bc:	8082                	ret
    18be:	47c1                	li	a5,16
    18c0:	06f58d63          	beq	a1,a5,193a <CAN_GetITStatus+0xa8>
    18c4:	02000793          	li	a5,32
    18c8:	06f58b63          	beq	a1,a5,193e <CAN_GetITStatus+0xac>
    18cc:	47a1                	li	a5,8
    18ce:	fef596e3          	bne	a1,a5,18ba <CAN_GetITStatus+0x28>
    18d2:	4548                	lw	a0,12(a0)
    18d4:	8111                	srli	a0,a0,0x4
    18d6:	a085                	j	1936 <CAN_GetITStatus+0xa4>
    18d8:	80058793          	addi	a5,a1,-2048
    18dc:	cfbd                	beqz	a5,195a <CAN_GetITStatus+0xc8>
    18de:	6785                	lui	a5,0x1
    18e0:	80078793          	addi	a5,a5,-2048 # 800 <__stack_size>
    18e4:	02b7e063          	bltu	a5,a1,1904 <CAN_GetITStatus+0x72>
    18e8:	20000793          	li	a5,512
    18ec:	06f58163          	beq	a1,a5,194e <CAN_GetITStatus+0xbc>
    18f0:	40000793          	li	a5,1024
    18f4:	06f58063          	beq	a1,a5,1954 <CAN_GetITStatus+0xc2>
    18f8:	10000793          	li	a5,256
    18fc:	faf59fe3          	bne	a1,a5,18ba <CAN_GetITStatus+0x28>
    1900:	4d08                	lw	a0,24(a0)
    1902:	a815                	j	1936 <CAN_GetITStatus+0xa4>
    1904:	67c1                	lui	a5,0x10
    1906:	04f58063          	beq	a1,a5,1946 <CAN_GetITStatus+0xb4>
    190a:	000207b7          	lui	a5,0x20
    190e:	02f58e63          	beq	a1,a5,194a <CAN_GetITStatus+0xb8>
    1912:	67a1                	lui	a5,0x8
    1914:	faf593e3          	bne	a1,a5,18ba <CAN_GetITStatus+0x28>
    1918:	4148                	lw	a0,4(a0)
    191a:	a835                	j	1956 <CAN_GetITStatus+0xc4>
    191c:	4508                	lw	a0,8(a0)
    191e:	67c1                	lui	a5,0x10
    1920:	10178793          	addi	a5,a5,257 # 10101 <_data_lma+0xcda9>
    1924:	8d7d                	and	a0,a0,a5
    1926:	00a03533          	snez	a0,a0
    192a:	8082                	ret
    192c:	4548                	lw	a0,12(a0)
    192e:	890d                	andi	a0,a0,3
    1930:	bfdd                	j	1926 <CAN_GetITStatus+0x94>
    1932:	4548                	lw	a0,12(a0)
    1934:	810d                	srli	a0,a0,0x3
    1936:	8905                	andi	a0,a0,1
    1938:	8082                	ret
    193a:	4908                	lw	a0,16(a0)
    193c:	bfcd                	j	192e <CAN_GetITStatus+0x9c>
    193e:	4908                	lw	a0,16(a0)
    1940:	bfd5                	j	1934 <CAN_GetITStatus+0xa2>
    1942:	4908                	lw	a0,16(a0)
    1944:	bf41                	j	18d4 <CAN_GetITStatus+0x42>
    1946:	4148                	lw	a0,4(a0)
    1948:	b7f5                	j	1934 <CAN_GetITStatus+0xa2>
    194a:	4148                	lw	a0,4(a0)
    194c:	b761                	j	18d4 <CAN_GetITStatus+0x42>
    194e:	4d08                	lw	a0,24(a0)
    1950:	8105                	srli	a0,a0,0x1
    1952:	b7d5                	j	1936 <CAN_GetITStatus+0xa4>
    1954:	4d08                	lw	a0,24(a0)
    1956:	8109                	srli	a0,a0,0x2
    1958:	bff9                	j	1936 <CAN_GetITStatus+0xa4>
    195a:	4d08                	lw	a0,24(a0)
    195c:	07057513          	andi	a0,a0,112
    1960:	b7d9                	j	1926 <CAN_GetITStatus+0x94>

00001962 <CAN_ClearITPendingBit>:
    1962:	10000793          	li	a5,256
    1966:	06f58663          	beq	a1,a5,19d2 <CAN_ClearITPendingBit+0x70>
    196a:	02b7e763          	bltu	a5,a1,1998 <CAN_ClearITPendingBit+0x36>
    196e:	47a1                	li	a5,8
    1970:	06f58863          	beq	a1,a5,19e0 <CAN_ClearITPendingBit+0x7e>
    1974:	00b7e963          	bltu	a5,a1,1986 <CAN_ClearITPendingBit+0x24>
    1978:	4705                	li	a4,1
    197a:	04e58e63          	beq	a1,a4,19d6 <CAN_ClearITPendingBit+0x74>
    197e:	4711                	li	a4,4
    1980:	06e58163          	beq	a1,a4,19e2 <CAN_ClearITPendingBit+0x80>
    1984:	8082                	ret
    1986:	02000713          	li	a4,32
    198a:	04e58f63          	beq	a1,a4,19e8 <CAN_ClearITPendingBit+0x86>
    198e:	04000793          	li	a5,64
    1992:	04f58a63          	beq	a1,a5,19e6 <CAN_ClearITPendingBit+0x84>
    1996:	8082                	ret
    1998:	80058793          	addi	a5,a1,-2048
    199c:	cb8d                	beqz	a5,19ce <CAN_ClearITPendingBit+0x6c>
    199e:	6785                	lui	a5,0x1
    19a0:	80078793          	addi	a5,a5,-2048 # 800 <__stack_size>
    19a4:	00b7eb63          	bltu	a5,a1,19ba <CAN_ClearITPendingBit+0x58>
    19a8:	20000793          	li	a5,512
    19ac:	02f58363          	beq	a1,a5,19d2 <CAN_ClearITPendingBit+0x70>
    19b0:	40000793          	li	a5,1024
    19b4:	00f58f63          	beq	a1,a5,19d2 <CAN_ClearITPendingBit+0x70>
    19b8:	8082                	ret
    19ba:	67c1                	lui	a5,0x10
    19bc:	02f58863          	beq	a1,a5,19ec <CAN_ClearITPendingBit+0x8a>
    19c0:	000207b7          	lui	a5,0x20
    19c4:	02f58763          	beq	a1,a5,19f2 <CAN_ClearITPendingBit+0x90>
    19c8:	67a1                	lui	a5,0x8
    19ca:	02f59363          	bne	a1,a5,19f0 <CAN_ClearITPendingBit+0x8e>
    19ce:	00052c23          	sw	zero,24(a0)
    19d2:	4791                	li	a5,4
    19d4:	a829                	j	19ee <CAN_ClearITPendingBit+0x8c>
    19d6:	67c1                	lui	a5,0x10
    19d8:	10178793          	addi	a5,a5,257 # 10101 <_data_lma+0xcda9>
    19dc:	c51c                	sw	a5,8(a0)
    19de:	8082                	ret
    19e0:	47c1                	li	a5,16
    19e2:	c55c                	sw	a5,12(a0)
    19e4:	8082                	ret
    19e6:	47c1                	li	a5,16
    19e8:	c91c                	sw	a5,16(a0)
    19ea:	8082                	ret
    19ec:	47a1                	li	a5,8
    19ee:	c15c                	sw	a5,4(a0)
    19f0:	8082                	ret
    19f2:	47c1                	li	a5,16
    19f4:	bfed                	j	19ee <CAN_ClearITPendingBit+0x8c>

000019f6 <DBGMCU_GetCHIPID>:
    19f6:	1ffff7b7          	lui	a5,0x1ffff
    19fa:	7047a503          	lw	a0,1796(a5) # 1ffff704 <_data_lma+0x1fffc3ac>
    19fe:	8082                	ret

00001a00 <GPIO_Init>:
    1a00:	459c                	lw	a5,8(a1)
    1a02:	0107f713          	andi	a4,a5,16
    1a06:	00f7f813          	andi	a6,a5,15
    1a0a:	c701                	beqz	a4,1a12 <GPIO_Init+0x12>
    1a0c:	41d8                	lw	a4,4(a1)
    1a0e:	00e86833          	or	a6,a6,a4
    1a12:	218e                	lhu	a1,0(a1)
    1a14:	0ff5f713          	andi	a4,a1,255
    1a18:	c339                	beqz	a4,1a5e <GPIO_Init+0x5e>
    1a1a:	4118                	lw	a4,0(a0)
    1a1c:	4681                	li	a3,0
    1a1e:	4e85                	li	t4,1
    1a20:	4f3d                	li	t5,15
    1a22:	02800f93          	li	t6,40
    1a26:	04800293          	li	t0,72
    1a2a:	4e21                	li	t3,8
    1a2c:	00de9633          	sll	a2,t4,a3
    1a30:	00c5f8b3          	and	a7,a1,a2
    1a34:	03161163          	bne	a2,a7,1a56 <GPIO_Init+0x56>
    1a38:	00269893          	slli	a7,a3,0x2
    1a3c:	011f1333          	sll	t1,t5,a7
    1a40:	fff34313          	not	t1,t1
    1a44:	00e37733          	and	a4,t1,a4
    1a48:	011818b3          	sll	a7,a6,a7
    1a4c:	00e8e733          	or	a4,a7,a4
    1a50:	05f79f63          	bne	a5,t6,1aae <GPIO_Init+0xae>
    1a54:	c950                	sw	a2,20(a0)
    1a56:	0685                	addi	a3,a3,1
    1a58:	fdc69ae3          	bne	a3,t3,1a2c <GPIO_Init+0x2c>
    1a5c:	c118                	sw	a4,0(a0)
    1a5e:	0ff00713          	li	a4,255
    1a62:	04b77563          	bgeu	a4,a1,1aac <GPIO_Init+0xac>
    1a66:	4154                	lw	a3,4(a0)
    1a68:	4621                	li	a2,8
    1a6a:	4e85                	li	t4,1
    1a6c:	4f3d                	li	t5,15
    1a6e:	02800f93          	li	t6,40
    1a72:	04800293          	li	t0,72
    1a76:	4e41                	li	t3,16
    1a78:	00ce98b3          	sll	a7,t4,a2
    1a7c:	0115f733          	and	a4,a1,a7
    1a80:	02e89263          	bne	a7,a4,1aa4 <GPIO_Init+0xa4>
    1a84:	00261713          	slli	a4,a2,0x2
    1a88:	1701                	addi	a4,a4,-32
    1a8a:	00ef1333          	sll	t1,t5,a4
    1a8e:	fff34313          	not	t1,t1
    1a92:	00d376b3          	and	a3,t1,a3
    1a96:	00e81733          	sll	a4,a6,a4
    1a9a:	8ed9                	or	a3,a3,a4
    1a9c:	01f79d63          	bne	a5,t6,1ab6 <GPIO_Init+0xb6>
    1aa0:	01152a23          	sw	a7,20(a0)
    1aa4:	0605                	addi	a2,a2,1
    1aa6:	fdc619e3          	bne	a2,t3,1a78 <GPIO_Init+0x78>
    1aaa:	c154                	sw	a3,4(a0)
    1aac:	8082                	ret
    1aae:	fa5794e3          	bne	a5,t0,1a56 <GPIO_Init+0x56>
    1ab2:	c910                	sw	a2,16(a0)
    1ab4:	b74d                	j	1a56 <GPIO_Init+0x56>
    1ab6:	fe5797e3          	bne	a5,t0,1aa4 <GPIO_Init+0xa4>
    1aba:	01152823          	sw	a7,16(a0)
    1abe:	b7dd                	j	1aa4 <GPIO_Init+0xa4>

00001ac0 <GPIO_SetBits>:
    1ac0:	c90c                	sw	a1,16(a0)
    1ac2:	8082                	ret

00001ac4 <GPIO_ResetBits>:
    1ac4:	c94c                	sw	a1,20(a0)
    1ac6:	8082                	ret

00001ac8 <GPIO_PinRemapConfig>:
    1ac8:	400107b7          	lui	a5,0x40010
    1acc:	04055a63          	bgez	a0,1b20 <GPIO_PinRemapConfig+0x58>
    1ad0:	4fdc                	lw	a5,28(a5)
    1ad2:	01055693          	srli	a3,a0,0x10
    1ad6:	01051813          	slli	a6,a0,0x10
    1ada:	00300737          	lui	a4,0x300
    1ade:	00f6f613          	andi	a2,a3,15
    1ae2:	01085813          	srli	a6,a6,0x10
    1ae6:	00e576b3          	and	a3,a0,a4
    1aea:	06055063          	bgez	a0,1b4a <GPIO_PinRemapConfig+0x82>
    1aee:	02e69b63          	bne	a3,a4,1b24 <GPIO_PinRemapConfig+0x5c>
    1af2:	01060693          	addi	a3,a2,16 # 40021010 <_eusrstack+0x20019010>
    1af6:	460d                	li	a2,3
    1af8:	00d616b3          	sll	a3,a2,a3
    1afc:	fff6c693          	not	a3,a3
    1b00:	8ff5                	and	a5,a5,a3
    1b02:	c999                	beqz	a1,1b18 <GPIO_PinRemapConfig+0x50>
    1b04:	01555713          	srli	a4,a0,0x15
    1b08:	3ff77713          	andi	a4,a4,1023
    1b0c:	0712                	slli	a4,a4,0x4
    1b0e:	00e81733          	sll	a4,a6,a4
    1b12:	8fd9                	or	a5,a5,a4
    1b14:	04055763          	bgez	a0,1b62 <GPIO_PinRemapConfig+0x9a>
    1b18:	40010737          	lui	a4,0x40010
    1b1c:	cf5c                	sw	a5,28(a4)
    1b1e:	8082                	ret
    1b20:	43dc                	lw	a5,4(a5)
    1b22:	bf45                	j	1ad2 <GPIO_PinRemapConfig+0xa>
    1b24:	00b51713          	slli	a4,a0,0xb
    1b28:	00075663          	bgez	a4,1b34 <GPIO_PinRemapConfig+0x6c>
    1b2c:	468d                	li	a3,3
    1b2e:	00c696b3          	sll	a3,a3,a2
    1b32:	b7e9                	j	1afc <GPIO_PinRemapConfig+0x34>
    1b34:	01555713          	srli	a4,a0,0x15
    1b38:	3ff77713          	andi	a4,a4,1023
    1b3c:	0712                	slli	a4,a4,0x4
    1b3e:	00e81733          	sll	a4,a6,a4
    1b42:	fff74713          	not	a4,a4
    1b46:	8ff9                	and	a5,a5,a4
    1b48:	bf6d                	j	1b02 <GPIO_PinRemapConfig+0x3a>
    1b4a:	02e69063          	bne	a3,a4,1b6a <GPIO_PinRemapConfig+0xa2>
    1b4e:	40010637          	lui	a2,0x40010
    1b52:	4254                	lw	a3,4(a2)
    1b54:	f1000737          	lui	a4,0xf1000
    1b58:	177d                	addi	a4,a4,-1
    1b5a:	8ff9                	and	a5,a5,a4
    1b5c:	8f75                	and	a4,a4,a3
    1b5e:	c258                	sw	a4,4(a2)
    1b60:	f1d5                	bnez	a1,1b04 <GPIO_PinRemapConfig+0x3c>
    1b62:	40010737          	lui	a4,0x40010
    1b66:	c35c                	sw	a5,4(a4)
    1b68:	8082                	ret
    1b6a:	00b51713          	slli	a4,a0,0xb
    1b6e:	00075c63          	bgez	a4,1b86 <GPIO_PinRemapConfig+0xbe>
    1b72:	468d                	li	a3,3
    1b74:	00c696b3          	sll	a3,a3,a2
    1b78:	fff6c693          	not	a3,a3
    1b7c:	8efd                	and	a3,a3,a5
    1b7e:	0f0007b7          	lui	a5,0xf000
    1b82:	8fd5                	or	a5,a5,a3
    1b84:	bff1                	j	1b60 <GPIO_PinRemapConfig+0x98>
    1b86:	01555713          	srli	a4,a0,0x15
    1b8a:	0712                	slli	a4,a4,0x4
    1b8c:	00e81733          	sll	a4,a6,a4
    1b90:	fff74713          	not	a4,a4
    1b94:	8f7d                	and	a4,a4,a5
    1b96:	0f0007b7          	lui	a5,0xf000
    1b9a:	8fd9                	or	a5,a5,a4
    1b9c:	b7d1                	j	1b60 <GPIO_PinRemapConfig+0x98>

00001b9e <NVIC_PriorityGroupConfig>:
    1b9e:	84a1a423          	sw	a0,-1976(gp) # 20000140 <NVIC_Priority_Group>
    1ba2:	8082                	ret

00001ba4 <RCC_GetClocksFreq>:
    1ba4:	40021737          	lui	a4,0x40021
    1ba8:	435c                	lw	a5,4(a4)
    1baa:	4691                	li	a3,4
    1bac:	8bb1                	andi	a5,a5,12
    1bae:	00d78563          	beq	a5,a3,1bb8 <RCC_GetClocksFreq+0x14>
    1bb2:	46a1                	li	a3,8
    1bb4:	06d78263          	beq	a5,a3,1c18 <RCC_GetClocksFreq+0x74>
    1bb8:	007a17b7          	lui	a5,0x7a1
    1bbc:	20078793          	addi	a5,a5,512 # 7a1200 <_data_lma+0x79dea8>
    1bc0:	c11c                	sw	a5,0(a0)
    1bc2:	40021637          	lui	a2,0x40021
    1bc6:	425c                	lw	a5,4(a2)
    1bc8:	20000737          	lui	a4,0x20000
    1bcc:	08470713          	addi	a4,a4,132 # 20000084 <APBAHBPrescTable>
    1bd0:	8391                	srli	a5,a5,0x4
    1bd2:	8bbd                	andi	a5,a5,15
    1bd4:	97ba                	add	a5,a5,a4
    1bd6:	2394                	lbu	a3,0(a5)
    1bd8:	411c                	lw	a5,0(a0)
    1bda:	00d7d7b3          	srl	a5,a5,a3
    1bde:	c15c                	sw	a5,4(a0)
    1be0:	4254                	lw	a3,4(a2)
    1be2:	82a1                	srli	a3,a3,0x8
    1be4:	8a9d                	andi	a3,a3,7
    1be6:	96ba                	add	a3,a3,a4
    1be8:	2294                	lbu	a3,0(a3)
    1bea:	00d7d6b3          	srl	a3,a5,a3
    1bee:	c514                	sw	a3,8(a0)
    1bf0:	4254                	lw	a3,4(a2)
    1bf2:	82ad                	srli	a3,a3,0xb
    1bf4:	8a9d                	andi	a3,a3,7
    1bf6:	9736                	add	a4,a4,a3
    1bf8:	2318                	lbu	a4,0(a4)
    1bfa:	00e7d7b3          	srl	a5,a5,a4
    1bfe:	c55c                	sw	a5,12(a0)
    1c00:	4258                	lw	a4,4(a2)
    1c02:	8339                	srli	a4,a4,0xe
    1c04:	00377693          	andi	a3,a4,3
    1c08:	80418713          	addi	a4,gp,-2044 # 200000fc <ADCPrescTable>
    1c0c:	9736                	add	a4,a4,a3
    1c0e:	2318                	lbu	a4,0(a4)
    1c10:	02e7d7b3          	divu	a5,a5,a4
    1c14:	c91c                	sw	a5,16(a0)
    1c16:	8082                	ret
    1c18:	435c                	lw	a5,4(a4)
    1c1a:	4358                	lw	a4,4(a4)
    1c1c:	66c1                	lui	a3,0x10
    1c1e:	83c9                	srli	a5,a5,0x12
    1c20:	8f75                	and	a4,a4,a3
    1c22:	1ffff6b7          	lui	a3,0x1ffff
    1c26:	70c6a683          	lw	a3,1804(a3) # 1ffff70c <_data_lma+0x1fffc3b4>
    1c2a:	8bbd                	andi	a5,a5,15
    1c2c:	0789                	addi	a5,a5,2
    1c2e:	01169613          	slli	a2,a3,0x11
    1c32:	00064863          	bltz	a2,1c42 <RCC_GetClocksFreq+0x9e>
    1c36:	46c5                	li	a3,17
    1c38:	4601                	li	a2,0
    1c3a:	02d79263          	bne	a5,a3,1c5e <RCC_GetClocksFreq+0xba>
    1c3e:	47c9                	li	a5,18
    1c40:	a839                	j	1c5e <RCC_GetClocksFreq+0xba>
    1c42:	4689                	li	a3,2
    1c44:	02d78f63          	beq	a5,a3,1c82 <RCC_GetClocksFreq+0xde>
    1c48:	46bd                	li	a3,15
    1c4a:	02d78e63          	beq	a5,a3,1c86 <RCC_GetClocksFreq+0xe2>
    1c4e:	46c1                	li	a3,16
    1c50:	02d78e63          	beq	a5,a3,1c8c <RCC_GetClocksFreq+0xe8>
    1c54:	46c5                	li	a3,17
    1c56:	4601                	li	a2,0
    1c58:	00d79363          	bne	a5,a3,1c5e <RCC_GetClocksFreq+0xba>
    1c5c:	47c1                	li	a5,16
    1c5e:	ef1d                	bnez	a4,1c9c <RCC_GetClocksFreq+0xf8>
    1c60:	40024737          	lui	a4,0x40024
    1c64:	80072703          	lw	a4,-2048(a4) # 40023800 <_eusrstack+0x2001b800>
    1c68:	8b41                	andi	a4,a4,16
    1c6a:	c705                	beqz	a4,1c92 <RCC_GetClocksFreq+0xee>
    1c6c:	007a1737          	lui	a4,0x7a1
    1c70:	20070713          	addi	a4,a4,512 # 7a1200 <_data_lma+0x79dea8>
    1c74:	02f707b3          	mul	a5,a4,a5
    1c78:	c11c                	sw	a5,0(a0)
    1c7a:	d621                	beqz	a2,1bc2 <RCC_GetClocksFreq+0x1e>
    1c7c:	411c                	lw	a5,0(a0)
    1c7e:	8385                	srli	a5,a5,0x1
    1c80:	b781                	j	1bc0 <RCC_GetClocksFreq+0x1c>
    1c82:	4601                	li	a2,0
    1c84:	bf6d                	j	1c3e <RCC_GetClocksFreq+0x9a>
    1c86:	4605                	li	a2,1
    1c88:	47b5                	li	a5,13
    1c8a:	bfd1                	j	1c5e <RCC_GetClocksFreq+0xba>
    1c8c:	4601                	li	a2,0
    1c8e:	47bd                	li	a5,15
    1c90:	b7f9                	j	1c5e <RCC_GetClocksFreq+0xba>
    1c92:	003d1737          	lui	a4,0x3d1
    1c96:	90070713          	addi	a4,a4,-1792 # 3d0900 <_data_lma+0x3cd5a8>
    1c9a:	bfe9                	j	1c74 <RCC_GetClocksFreq+0xd0>
    1c9c:	400215b7          	lui	a1,0x40021
    1ca0:	55d8                	lw	a4,44(a1)
    1ca2:	00f71693          	slli	a3,a4,0xf
    1ca6:	55d8                	lw	a4,44(a1)
    1ca8:	0406df63          	bgez	a3,1d06 <RCC_GetClocksFreq+0x162>
    1cac:	8311                	srli	a4,a4,0x4
    1cae:	8b3d                	andi	a4,a4,15
    1cb0:	00170693          	addi	a3,a4,1
    1cb4:	007a1737          	lui	a4,0x7a1
    1cb8:	20070713          	addi	a4,a4,512 # 7a1200 <_data_lma+0x79dea8>
    1cbc:	02d75733          	divu	a4,a4,a3
    1cc0:	c118                	sw	a4,0(a0)
    1cc2:	55d4                	lw	a3,44(a1)
    1cc4:	82a1                	srli	a3,a3,0x8
    1cc6:	8abd                	andi	a3,a3,15
    1cc8:	e28d                	bnez	a3,1cea <RCC_GetClocksFreq+0x146>
    1cca:	4695                	li	a3,5
    1ccc:	02d70733          	mul	a4,a4,a3
    1cd0:	8305                	srli	a4,a4,0x1
    1cd2:	c118                	sw	a4,0(a0)
    1cd4:	40021737          	lui	a4,0x40021
    1cd8:	5758                	lw	a4,44(a4)
    1cda:	4114                	lw	a3,0(a0)
    1cdc:	8b3d                	andi	a4,a4,15
    1cde:	0705                	addi	a4,a4,1
    1ce0:	02e6d733          	divu	a4,a3,a4
    1ce4:	c118                	sw	a4,0(a0)
    1ce6:	4118                	lw	a4,0(a0)
    1ce8:	b771                	j	1c74 <RCC_GetClocksFreq+0xd0>
    1cea:	4585                	li	a1,1
    1cec:	00b69463          	bne	a3,a1,1cf4 <RCC_GetClocksFreq+0x150>
    1cf0:	46e5                	li	a3,25
    1cf2:	bfe9                	j	1ccc <RCC_GetClocksFreq+0x128>
    1cf4:	45bd                	li	a1,15
    1cf6:	00b69663          	bne	a3,a1,1d02 <RCC_GetClocksFreq+0x15e>
    1cfa:	46d1                	li	a3,20
    1cfc:	02e68733          	mul	a4,a3,a4
    1d00:	bfc9                	j	1cd2 <RCC_GetClocksFreq+0x12e>
    1d02:	0689                	addi	a3,a3,2
    1d04:	bfe5                	j	1cfc <RCC_GetClocksFreq+0x158>
    1d06:	8b3d                	andi	a4,a4,15
    1d08:	00170693          	addi	a3,a4,1 # 40021001 <_eusrstack+0x20019001>
    1d0c:	007a1737          	lui	a4,0x7a1
    1d10:	20070713          	addi	a4,a4,512 # 7a1200 <_data_lma+0x79dea8>
    1d14:	02d75733          	divu	a4,a4,a3
    1d18:	b7f1                	j	1ce4 <RCC_GetClocksFreq+0x140>

00001d1a <RCC_AHBPeriphClockCmd>:
    1d1a:	c599                	beqz	a1,1d28 <RCC_AHBPeriphClockCmd+0xe>
    1d1c:	40021737          	lui	a4,0x40021
    1d20:	4b5c                	lw	a5,20(a4)
    1d22:	8d5d                	or	a0,a0,a5
    1d24:	cb48                	sw	a0,20(a4)
    1d26:	8082                	ret
    1d28:	400217b7          	lui	a5,0x40021
    1d2c:	4bd8                	lw	a4,20(a5)
    1d2e:	fff54513          	not	a0,a0
    1d32:	8d79                	and	a0,a0,a4
    1d34:	cbc8                	sw	a0,20(a5)
    1d36:	8082                	ret

00001d38 <RCC_APB2PeriphClockCmd>:
    1d38:	c599                	beqz	a1,1d46 <RCC_APB2PeriphClockCmd+0xe>
    1d3a:	40021737          	lui	a4,0x40021
    1d3e:	4f1c                	lw	a5,24(a4)
    1d40:	8d5d                	or	a0,a0,a5
    1d42:	cf08                	sw	a0,24(a4)
    1d44:	8082                	ret
    1d46:	400217b7          	lui	a5,0x40021
    1d4a:	4f98                	lw	a4,24(a5)
    1d4c:	fff54513          	not	a0,a0
    1d50:	8d79                	and	a0,a0,a4
    1d52:	cf88                	sw	a0,24(a5)
    1d54:	8082                	ret

00001d56 <RCC_APB1PeriphClockCmd>:
    1d56:	c599                	beqz	a1,1d64 <RCC_APB1PeriphClockCmd+0xe>
    1d58:	40021737          	lui	a4,0x40021
    1d5c:	4f5c                	lw	a5,28(a4)
    1d5e:	8d5d                	or	a0,a0,a5
    1d60:	cf48                	sw	a0,28(a4)
    1d62:	8082                	ret
    1d64:	400217b7          	lui	a5,0x40021
    1d68:	4fd8                	lw	a4,28(a5)
    1d6a:	fff54513          	not	a0,a0
    1d6e:	8d79                	and	a0,a0,a4
    1d70:	cfc8                	sw	a0,28(a5)
    1d72:	8082                	ret

00001d74 <RCC_APB1PeriphResetCmd>:
    1d74:	c599                	beqz	a1,1d82 <RCC_APB1PeriphResetCmd+0xe>
    1d76:	40021737          	lui	a4,0x40021
    1d7a:	4b1c                	lw	a5,16(a4)
    1d7c:	8d5d                	or	a0,a0,a5
    1d7e:	cb08                	sw	a0,16(a4)
    1d80:	8082                	ret
    1d82:	400217b7          	lui	a5,0x40021
    1d86:	4b98                	lw	a4,16(a5)
    1d88:	fff54513          	not	a0,a0
    1d8c:	8d79                	and	a0,a0,a4
    1d8e:	cb88                	sw	a0,16(a5)
    1d90:	8082                	ret

00001d92 <RCC_USBHSConfig>:
    1d92:	400217b7          	lui	a5,0x40021
    1d96:	57d8                	lw	a4,44(a5)
    1d98:	f90006b7          	lui	a3,0xf9000
    1d9c:	16fd                	addi	a3,a3,-1
    1d9e:	8f75                	and	a4,a4,a3
    1da0:	d7d8                	sw	a4,44(a5)
    1da2:	57d8                	lw	a4,44(a5)
    1da4:	0562                	slli	a0,a0,0x18
    1da6:	8d59                	or	a0,a0,a4
    1da8:	d7c8                	sw	a0,44(a5)
    1daa:	8082                	ret

00001dac <RCC_USBHSPLLCLKConfig>:
    1dac:	400217b7          	lui	a5,0x40021
    1db0:	57d8                	lw	a4,44(a5)
    1db2:	f80006b7          	lui	a3,0xf8000
    1db6:	16fd                	addi	a3,a3,-1
    1db8:	8f75                	and	a4,a4,a3
    1dba:	d7d8                	sw	a4,44(a5)
    1dbc:	57d8                	lw	a4,44(a5)
    1dbe:	056e                	slli	a0,a0,0x1b
    1dc0:	8d59                	or	a0,a0,a4
    1dc2:	d7c8                	sw	a0,44(a5)
    1dc4:	8082                	ret

00001dc6 <RCC_USBHSPLLCKREFCLKConfig>:
    1dc6:	400217b7          	lui	a5,0x40021
    1dca:	57d8                	lw	a4,44(a5)
    1dcc:	d00006b7          	lui	a3,0xd0000
    1dd0:	16fd                	addi	a3,a3,-1
    1dd2:	8f75                	and	a4,a4,a3
    1dd4:	d7d8                	sw	a4,44(a5)
    1dd6:	57d8                	lw	a4,44(a5)
    1dd8:	0572                	slli	a0,a0,0x1c
    1dda:	8d59                	or	a0,a0,a4
    1ddc:	d7c8                	sw	a0,44(a5)
    1dde:	8082                	ret

00001de0 <RCC_USBHSPHYPLLALIVEcmd>:
    1de0:	c909                	beqz	a0,1df2 <RCC_USBHSPHYPLLALIVEcmd+0x12>
    1de2:	40021737          	lui	a4,0x40021
    1de6:	575c                	lw	a5,44(a4)
    1de8:	400006b7          	lui	a3,0x40000
    1dec:	8fd5                	or	a5,a5,a3
    1dee:	d75c                	sw	a5,44(a4)
    1df0:	8082                	ret
    1df2:	400216b7          	lui	a3,0x40021
    1df6:	56dc                	lw	a5,44(a3)
    1df8:	c0000737          	lui	a4,0xc0000
    1dfc:	177d                	addi	a4,a4,-1
    1dfe:	8ff9                	and	a5,a5,a4
    1e00:	d6dc                	sw	a5,44(a3)
    1e02:	8082                	ret

00001e04 <RCC_USBCLK48MConfig>:
    1e04:	40021737          	lui	a4,0x40021
    1e08:	575c                	lw	a5,44(a4)
    1e0a:	057e                	slli	a0,a0,0x1f
    1e0c:	0786                	slli	a5,a5,0x1
    1e0e:	8385                	srli	a5,a5,0x1
    1e10:	d75c                	sw	a5,44(a4)
    1e12:	575c                	lw	a5,44(a4)
    1e14:	8d5d                	or	a0,a0,a5
    1e16:	d748                	sw	a0,44(a4)
    1e18:	8082                	ret

00001e1a <USART_Init>:
    1e1a:	bd6fe2ef          	jal	t0,1f0 <__riscv_save_0>
    1e1e:	2916                	lhu	a3,16(a0)
    1e20:	77f5                	lui	a5,0xffffd
    1e22:	17fd                	addi	a5,a5,-1
    1e24:	8ff5                	and	a5,a5,a3
    1e26:	21f6                	lhu	a3,6(a1)
    1e28:	25da                	lhu	a4,12(a1)
    1e2a:	7179                	addi	sp,sp,-48
    1e2c:	8fd5                	or	a5,a5,a3
    1e2e:	a91e                	sh	a5,16(a0)
    1e30:	2556                	lhu	a3,12(a0)
    1e32:	77fd                	lui	a5,0xfffff
    1e34:	9f378793          	addi	a5,a5,-1549 # ffffe9f3 <_eusrstack+0xdfff69f3>
    1e38:	8ff5                	and	a5,a5,a3
    1e3a:	21d6                	lhu	a3,4(a1)
    1e3c:	842a                	mv	s0,a0
    1e3e:	c62e                	sw	a1,12(sp)
    1e40:	8fd5                	or	a5,a5,a3
    1e42:	2596                	lhu	a3,8(a1)
    1e44:	8fd5                	or	a5,a5,a3
    1e46:	25b6                	lhu	a3,10(a1)
    1e48:	8fd5                	or	a5,a5,a3
    1e4a:	a55e                	sh	a5,12(a0)
    1e4c:	295e                	lhu	a5,20(a0)
    1e4e:	07c2                	slli	a5,a5,0x10
    1e50:	83c1                	srli	a5,a5,0x10
    1e52:	cff7f793          	andi	a5,a5,-769
    1e56:	8fd9                	or	a5,a5,a4
    1e58:	a95e                	sh	a5,20(a0)
    1e5a:	0868                	addi	a0,sp,28
    1e5c:	33a1                	jal	1ba4 <RCC_GetClocksFreq>
    1e5e:	400147b7          	lui	a5,0x40014
    1e62:	80078793          	addi	a5,a5,-2048 # 40013800 <_eusrstack+0x2000b800>
    1e66:	45b2                	lw	a1,12(sp)
    1e68:	02f41e63          	bne	s0,a5,1ea4 <USART_Init+0x8a>
    1e6c:	57a2                	lw	a5,40(sp)
    1e6e:	4765                	li	a4,25
    1e70:	02e787b3          	mul	a5,a5,a4
    1e74:	4198                	lw	a4,0(a1)
    1e76:	06400693          	li	a3,100
    1e7a:	070a                	slli	a4,a4,0x2
    1e7c:	02e7d7b3          	divu	a5,a5,a4
    1e80:	02d7d733          	divu	a4,a5,a3
    1e84:	02d7f7b3          	remu	a5,a5,a3
    1e88:	0712                	slli	a4,a4,0x4
    1e8a:	0792                	slli	a5,a5,0x4
    1e8c:	03278793          	addi	a5,a5,50
    1e90:	02d7d7b3          	divu	a5,a5,a3
    1e94:	8bbd                	andi	a5,a5,15
    1e96:	8fd9                	or	a5,a5,a4
    1e98:	07c2                	slli	a5,a5,0x10
    1e9a:	83c1                	srli	a5,a5,0x10
    1e9c:	a41e                	sh	a5,8(s0)
    1e9e:	6145                	addi	sp,sp,48
    1ea0:	b74fe06f          	j	214 <__riscv_restore_0>
    1ea4:	5792                	lw	a5,36(sp)
    1ea6:	b7e1                	j	1e6e <USART_Init+0x54>

00001ea8 <USART_Cmd>:
    1ea8:	c591                	beqz	a1,1eb4 <USART_Cmd+0xc>
    1eaa:	255e                	lhu	a5,12(a0)
    1eac:	6709                	lui	a4,0x2
    1eae:	8fd9                	or	a5,a5,a4
    1eb0:	a55e                	sh	a5,12(a0)
    1eb2:	8082                	ret
    1eb4:	255a                	lhu	a4,12(a0)
    1eb6:	77f9                	lui	a5,0xffffe
    1eb8:	17fd                	addi	a5,a5,-1
    1eba:	8ff9                	and	a5,a5,a4
    1ebc:	bfd5                	j	1eb0 <USART_Cmd+0x8>

00001ebe <USART_SendData>:
    1ebe:	1ff5f593          	andi	a1,a1,511
    1ec2:	a14e                	sh	a1,4(a0)
    1ec4:	8082                	ret

00001ec6 <USART_GetFlagStatus>:
    1ec6:	210a                	lhu	a0,0(a0)
    1ec8:	8d6d                	and	a0,a0,a1
    1eca:	00a03533          	snez	a0,a0
    1ece:	8082                	ret

00001ed0 <Delay_Init>:
    1ed0:	200007b7          	lui	a5,0x20000
    1ed4:	0f87a783          	lw	a5,248(a5) # 200000f8 <SystemCoreClock>
    1ed8:	007a1737          	lui	a4,0x7a1
    1edc:	20070713          	addi	a4,a4,512 # 7a1200 <_data_lma+0x79dea8>
    1ee0:	02e7d7b3          	divu	a5,a5,a4
    1ee4:	0ff7f793          	andi	a5,a5,255
    1ee8:	84f18723          	sb	a5,-1970(gp) # 20000146 <p_us>
    1eec:	3e800713          	li	a4,1000
    1ef0:	02e787b3          	mul	a5,a5,a4
    1ef4:	84f19623          	sh	a5,-1972(gp) # 20000144 <p_ms>
    1ef8:	8082                	ret

00001efa <Delay_Us>:
    1efa:	e000f7b7          	lui	a5,0xe000f
    1efe:	43d8                	lw	a4,4(a5)
    1f00:	4681                	li	a3,0
    1f02:	9b79                	andi	a4,a4,-2
    1f04:	c3d8                	sw	a4,4(a5)
    1f06:	84e1c703          	lbu	a4,-1970(gp) # 20000146 <p_us>
    1f0a:	02a70633          	mul	a2,a4,a0
    1f0e:	cb90                	sw	a2,16(a5)
    1f10:	cbd4                	sw	a3,20(a5)
    1f12:	4398                	lw	a4,0(a5)
    1f14:	01076713          	ori	a4,a4,16
    1f18:	c398                	sw	a4,0(a5)
    1f1a:	4398                	lw	a4,0(a5)
    1f1c:	02176713          	ori	a4,a4,33
    1f20:	c398                	sw	a4,0(a5)
    1f22:	43d8                	lw	a4,4(a5)
    1f24:	8b05                	andi	a4,a4,1
    1f26:	df75                	beqz	a4,1f22 <Delay_Us+0x28>
    1f28:	4398                	lw	a4,0(a5)
    1f2a:	9b79                	andi	a4,a4,-2
    1f2c:	c398                	sw	a4,0(a5)
    1f2e:	8082                	ret

00001f30 <USART_Printf_Init>:
    1f30:	ac0fe2ef          	jal	t0,1f0 <__riscv_save_0>
    1f34:	842a                	mv	s0,a0
    1f36:	6511                	lui	a0,0x4
    1f38:	1101                	addi	sp,sp,-32
    1f3a:	4585                	li	a1,1
    1f3c:	0511                	addi	a0,a0,4
    1f3e:	3bed                	jal	1d38 <RCC_APB2PeriphClockCmd>
    1f40:	20000793          	li	a5,512
    1f44:	827c                	sh	a5,4(sp)
    1f46:	40011537          	lui	a0,0x40011
    1f4a:	478d                	li	a5,3
    1f4c:	c43e                	sw	a5,8(sp)
    1f4e:	004c                	addi	a1,sp,4
    1f50:	47e1                	li	a5,24
    1f52:	80050513          	addi	a0,a0,-2048 # 40010800 <_eusrstack+0x20008800>
    1f56:	c63e                	sw	a5,12(sp)
    1f58:	aa9ff0ef          	jal	ra,1a00 <GPIO_Init>
    1f5c:	c822                	sw	s0,16(sp)
    1f5e:	40014437          	lui	s0,0x40014
    1f62:	000807b7          	lui	a5,0x80
    1f66:	080c                	addi	a1,sp,16
    1f68:	80040513          	addi	a0,s0,-2048 # 40013800 <_eusrstack+0x2000b800>
    1f6c:	cc3e                	sw	a5,24(sp)
    1f6e:	ca02                	sw	zero,20(sp)
    1f70:	00011e23          	sh	zero,28(sp)
    1f74:	355d                	jal	1e1a <USART_Init>
    1f76:	4585                	li	a1,1
    1f78:	80040513          	addi	a0,s0,-2048
    1f7c:	3735                	jal	1ea8 <USART_Cmd>
    1f7e:	6105                	addi	sp,sp,32
    1f80:	a94fe06f          	j	214 <__riscv_restore_0>

00001f84 <_write>:
    1f84:	a52fe2ef          	jal	t0,1d6 <__riscv_save_4>
    1f88:	400144b7          	lui	s1,0x40014
    1f8c:	89ae                	mv	s3,a1
    1f8e:	8932                	mv	s2,a2
    1f90:	4401                	li	s0,0
    1f92:	80048493          	addi	s1,s1,-2048 # 40013800 <_eusrstack+0x2000b800>
    1f96:	01244563          	blt	s0,s2,1fa0 <_write+0x1c>
    1f9a:	854a                	mv	a0,s2
    1f9c:	a6efe06f          	j	20a <__riscv_restore_4>
    1fa0:	04000593          	li	a1,64
    1fa4:	8526                	mv	a0,s1
    1fa6:	3705                	jal	1ec6 <USART_GetFlagStatus>
    1fa8:	dd65                	beqz	a0,1fa0 <_write+0x1c>
    1faa:	008987b3          	add	a5,s3,s0
    1fae:	00078583          	lb	a1,0(a5) # 80000 <_data_lma+0x7cca8>
    1fb2:	8526                	mv	a0,s1
    1fb4:	0405                	addi	s0,s0,1
    1fb6:	05c2                	slli	a1,a1,0x10
    1fb8:	81c1                	srli	a1,a1,0x10
    1fba:	3711                	jal	1ebe <USART_SendData>
    1fbc:	bfe9                	j	1f96 <_write+0x12>

00001fbe <_sbrk>:
    1fbe:	80818713          	addi	a4,gp,-2040 # 20000100 <curbrk.5273>
    1fc2:	431c                	lw	a5,0(a4)
    1fc4:	f4418693          	addi	a3,gp,-188 # 2000083c <_ebss>
    1fc8:	953e                	add	a0,a0,a5
    1fca:	00d56b63          	bltu	a0,a3,1fe0 <_sbrk+0x22>
    1fce:	200086b7          	lui	a3,0x20008
    1fd2:	80068693          	addi	a3,a3,-2048 # 20007800 <_heap_end>
    1fd6:	00a6e563          	bltu	a3,a0,1fe0 <_sbrk+0x22>
    1fda:	c308                	sw	a0,0(a4)
    1fdc:	853e                	mv	a0,a5
    1fde:	8082                	ret
    1fe0:	57fd                	li	a5,-1
    1fe2:	bfed                	j	1fdc <_sbrk+0x1e>

00001fe4 <memcpy>:
    1fe4:	00a5c7b3          	xor	a5,a1,a0
    1fe8:	8b8d                	andi	a5,a5,3
    1fea:	00c50733          	add	a4,a0,a2
    1fee:	e781                	bnez	a5,1ff6 <memcpy+0x12>
    1ff0:	478d                	li	a5,3
    1ff2:	00c7ed63          	bltu	a5,a2,200c <memcpy+0x28>
    1ff6:	87aa                	mv	a5,a0
    1ff8:	08e57e63          	bgeu	a0,a4,2094 <memcpy+0xb0>
    1ffc:	2194                	lbu	a3,0(a1)
    1ffe:	0785                	addi	a5,a5,1
    2000:	0585                	addi	a1,a1,1
    2002:	fed78fa3          	sb	a3,-1(a5)
    2006:	fee7ebe3          	bltu	a5,a4,1ffc <memcpy+0x18>
    200a:	8082                	ret
    200c:	00357693          	andi	a3,a0,3
    2010:	87aa                	mv	a5,a0
    2012:	ca89                	beqz	a3,2024 <memcpy+0x40>
    2014:	2194                	lbu	a3,0(a1)
    2016:	0785                	addi	a5,a5,1
    2018:	0585                	addi	a1,a1,1
    201a:	fed78fa3          	sb	a3,-1(a5)
    201e:	0037f693          	andi	a3,a5,3
    2022:	bfc5                	j	2012 <memcpy+0x2e>
    2024:	ffc77693          	andi	a3,a4,-4
    2028:	fe068613          	addi	a2,a3,-32
    202c:	06c7f063          	bgeu	a5,a2,208c <memcpy+0xa8>
    2030:	0005a383          	lw	t2,0(a1) # 40021000 <_eusrstack+0x20019000>
    2034:	0045a283          	lw	t0,4(a1)
    2038:	0085af83          	lw	t6,8(a1)
    203c:	00c5af03          	lw	t5,12(a1)
    2040:	0105ae83          	lw	t4,16(a1)
    2044:	0145ae03          	lw	t3,20(a1)
    2048:	0185a303          	lw	t1,24(a1)
    204c:	01c5a883          	lw	a7,28(a1)
    2050:	02458593          	addi	a1,a1,36
    2054:	0077a023          	sw	t2,0(a5)
    2058:	ffc5a803          	lw	a6,-4(a1)
    205c:	0057a223          	sw	t0,4(a5)
    2060:	01f7a423          	sw	t6,8(a5)
    2064:	01e7a623          	sw	t5,12(a5)
    2068:	01d7a823          	sw	t4,16(a5)
    206c:	01c7aa23          	sw	t3,20(a5)
    2070:	0067ac23          	sw	t1,24(a5)
    2074:	0117ae23          	sw	a7,28(a5)
    2078:	02478793          	addi	a5,a5,36
    207c:	ff07ae23          	sw	a6,-4(a5)
    2080:	b775                	j	202c <memcpy+0x48>
    2082:	4190                	lw	a2,0(a1)
    2084:	0791                	addi	a5,a5,4
    2086:	0591                	addi	a1,a1,4
    2088:	fec7ae23          	sw	a2,-4(a5)
    208c:	fed7ebe3          	bltu	a5,a3,2082 <memcpy+0x9e>
    2090:	f6e7e6e3          	bltu	a5,a4,1ffc <memcpy+0x18>
    2094:	8082                	ret

00002096 <iprintf>:
    2096:	7139                	addi	sp,sp,-64
    2098:	da3e                	sw	a5,52(sp)
    209a:	d22e                	sw	a1,36(sp)
    209c:	d432                	sw	a2,40(sp)
    209e:	d636                	sw	a3,44(sp)
    20a0:	d83a                	sw	a4,48(sp)
    20a2:	dc42                	sw	a6,56(sp)
    20a4:	de46                	sw	a7,60(sp)
    20a6:	80c18793          	addi	a5,gp,-2036 # 20000104 <_impure_ptr>
    20aa:	cc22                	sw	s0,24(sp)
    20ac:	4380                	lw	s0,0(a5)
    20ae:	ca26                	sw	s1,20(sp)
    20b0:	ce06                	sw	ra,28(sp)
    20b2:	84aa                	mv	s1,a0
    20b4:	c409                	beqz	s0,20be <iprintf+0x28>
    20b6:	4c1c                	lw	a5,24(s0)
    20b8:	e399                	bnez	a5,20be <iprintf+0x28>
    20ba:	8522                	mv	a0,s0
    20bc:	20f9                	jal	218a <__sinit>
    20be:	440c                	lw	a1,8(s0)
    20c0:	1054                	addi	a3,sp,36
    20c2:	8626                	mv	a2,s1
    20c4:	8522                	mv	a0,s0
    20c6:	c636                	sw	a3,12(sp)
    20c8:	26a5                	jal	2430 <_vfiprintf_r>
    20ca:	40f2                	lw	ra,28(sp)
    20cc:	4462                	lw	s0,24(sp)
    20ce:	44d2                	lw	s1,20(sp)
    20d0:	6121                	addi	sp,sp,64
    20d2:	8082                	ret

000020d4 <std>:
    20d4:	1141                	addi	sp,sp,-16
    20d6:	c422                	sw	s0,8(sp)
    20d8:	c606                	sw	ra,12(sp)
    20da:	842a                	mv	s0,a0
    20dc:	a54e                	sh	a1,12(a0)
    20de:	a572                	sh	a2,14(a0)
    20e0:	00052023          	sw	zero,0(a0)
    20e4:	00052223          	sw	zero,4(a0)
    20e8:	00052423          	sw	zero,8(a0)
    20ec:	06052223          	sw	zero,100(a0)
    20f0:	00052823          	sw	zero,16(a0)
    20f4:	00052a23          	sw	zero,20(a0)
    20f8:	00052c23          	sw	zero,24(a0)
    20fc:	4621                	li	a2,8
    20fe:	4581                	li	a1,0
    2100:	05c50513          	addi	a0,a0,92
    2104:	91cfe0ef          	jal	ra,220 <memset>
    2108:	00001797          	auipc	a5,0x1
    210c:	98678793          	addi	a5,a5,-1658 # 2a8e <__sread>
    2110:	d05c                	sw	a5,36(s0)
    2112:	00001797          	auipc	a5,0x1
    2116:	9a878793          	addi	a5,a5,-1624 # 2aba <__swrite>
    211a:	d41c                	sw	a5,40(s0)
    211c:	00001797          	auipc	a5,0x1
    2120:	9e678793          	addi	a5,a5,-1562 # 2b02 <__sseek>
    2124:	d45c                	sw	a5,44(s0)
    2126:	00001797          	auipc	a5,0x1
    212a:	a0c78793          	addi	a5,a5,-1524 # 2b32 <__sclose>
    212e:	d000                	sw	s0,32(s0)
    2130:	d81c                	sw	a5,48(s0)
    2132:	40b2                	lw	ra,12(sp)
    2134:	4422                	lw	s0,8(sp)
    2136:	0141                	addi	sp,sp,16
    2138:	8082                	ret

0000213a <_cleanup_r>:
    213a:	00001597          	auipc	a1,0x1
    213e:	d4058593          	addi	a1,a1,-704 # 2e7a <_fflush_r>
    2142:	a2a9                	j	228c <_fwalk_reent>

00002144 <__sfmoreglue>:
    2144:	1141                	addi	sp,sp,-16
    2146:	c226                	sw	s1,4(sp)
    2148:	06800613          	li	a2,104
    214c:	fff58493          	addi	s1,a1,-1
    2150:	02c484b3          	mul	s1,s1,a2
    2154:	c04a                	sw	s2,0(sp)
    2156:	892e                	mv	s2,a1
    2158:	c422                	sw	s0,8(sp)
    215a:	c606                	sw	ra,12(sp)
    215c:	07448593          	addi	a1,s1,116
    2160:	2a59                	jal	22f6 <_malloc_r>
    2162:	842a                	mv	s0,a0
    2164:	cd01                	beqz	a0,217c <__sfmoreglue+0x38>
    2166:	00052023          	sw	zero,0(a0)
    216a:	01252223          	sw	s2,4(a0)
    216e:	0531                	addi	a0,a0,12
    2170:	c408                	sw	a0,8(s0)
    2172:	06848613          	addi	a2,s1,104
    2176:	4581                	li	a1,0
    2178:	8a8fe0ef          	jal	ra,220 <memset>
    217c:	8522                	mv	a0,s0
    217e:	40b2                	lw	ra,12(sp)
    2180:	4422                	lw	s0,8(sp)
    2182:	4492                	lw	s1,4(sp)
    2184:	4902                	lw	s2,0(sp)
    2186:	0141                	addi	sp,sp,16
    2188:	8082                	ret

0000218a <__sinit>:
    218a:	4d1c                	lw	a5,24(a0)
    218c:	e3ad                	bnez	a5,21ee <__sinit+0x64>
    218e:	1141                	addi	sp,sp,-16
    2190:	c606                	sw	ra,12(sp)
    2192:	c422                	sw	s0,8(sp)
    2194:	00000797          	auipc	a5,0x0
    2198:	fa678793          	addi	a5,a5,-90 # 213a <_cleanup_r>
    219c:	d51c                	sw	a5,40(a0)
    219e:	82018793          	addi	a5,gp,-2016 # 20000118 <_global_impure_ptr>
    21a2:	439c                	lw	a5,0(a5)
    21a4:	04052423          	sw	zero,72(a0)
    21a8:	04052623          	sw	zero,76(a0)
    21ac:	04052823          	sw	zero,80(a0)
    21b0:	00f51463          	bne	a0,a5,21b8 <__sinit+0x2e>
    21b4:	4785                	li	a5,1
    21b6:	cd1c                	sw	a5,24(a0)
    21b8:	842a                	mv	s0,a0
    21ba:	281d                	jal	21f0 <__sfp>
    21bc:	c048                	sw	a0,4(s0)
    21be:	8522                	mv	a0,s0
    21c0:	2805                	jal	21f0 <__sfp>
    21c2:	c408                	sw	a0,8(s0)
    21c4:	8522                	mv	a0,s0
    21c6:	202d                	jal	21f0 <__sfp>
    21c8:	c448                	sw	a0,12(s0)
    21ca:	4048                	lw	a0,4(s0)
    21cc:	4601                	li	a2,0
    21ce:	4591                	li	a1,4
    21d0:	3711                	jal	20d4 <std>
    21d2:	4408                	lw	a0,8(s0)
    21d4:	4605                	li	a2,1
    21d6:	45a5                	li	a1,9
    21d8:	3df5                	jal	20d4 <std>
    21da:	4448                	lw	a0,12(s0)
    21dc:	4609                	li	a2,2
    21de:	45c9                	li	a1,18
    21e0:	3dd5                	jal	20d4 <std>
    21e2:	4785                	li	a5,1
    21e4:	cc1c                	sw	a5,24(s0)
    21e6:	40b2                	lw	ra,12(sp)
    21e8:	4422                	lw	s0,8(sp)
    21ea:	0141                	addi	sp,sp,16
    21ec:	8082                	ret
    21ee:	8082                	ret

000021f0 <__sfp>:
    21f0:	1141                	addi	sp,sp,-16
    21f2:	82018793          	addi	a5,gp,-2016 # 20000118 <_global_impure_ptr>
    21f6:	c226                	sw	s1,4(sp)
    21f8:	4384                	lw	s1,0(a5)
    21fa:	c04a                	sw	s2,0(sp)
    21fc:	c606                	sw	ra,12(sp)
    21fe:	4c9c                	lw	a5,24(s1)
    2200:	c422                	sw	s0,8(sp)
    2202:	892a                	mv	s2,a0
    2204:	e399                	bnez	a5,220a <__sfp+0x1a>
    2206:	8526                	mv	a0,s1
    2208:	3749                	jal	218a <__sinit>
    220a:	04848493          	addi	s1,s1,72
    220e:	4480                	lw	s0,8(s1)
    2210:	40dc                	lw	a5,4(s1)
    2212:	17fd                	addi	a5,a5,-1
    2214:	0007d663          	bgez	a5,2220 <__sfp+0x30>
    2218:	409c                	lw	a5,0(s1)
    221a:	cfb9                	beqz	a5,2278 <__sfp+0x88>
    221c:	4084                	lw	s1,0(s1)
    221e:	bfc5                	j	220e <__sfp+0x1e>
    2220:	00c41703          	lh	a4,12(s0)
    2224:	e739                	bnez	a4,2272 <__sfp+0x82>
    2226:	77c1                	lui	a5,0xffff0
    2228:	0785                	addi	a5,a5,1
    222a:	06042223          	sw	zero,100(s0)
    222e:	00042023          	sw	zero,0(s0)
    2232:	00042223          	sw	zero,4(s0)
    2236:	00042423          	sw	zero,8(s0)
    223a:	c45c                	sw	a5,12(s0)
    223c:	00042823          	sw	zero,16(s0)
    2240:	00042a23          	sw	zero,20(s0)
    2244:	00042c23          	sw	zero,24(s0)
    2248:	4621                	li	a2,8
    224a:	4581                	li	a1,0
    224c:	05c40513          	addi	a0,s0,92
    2250:	fd1fd0ef          	jal	ra,220 <memset>
    2254:	02042a23          	sw	zero,52(s0)
    2258:	02042c23          	sw	zero,56(s0)
    225c:	04042423          	sw	zero,72(s0)
    2260:	04042623          	sw	zero,76(s0)
    2264:	8522                	mv	a0,s0
    2266:	40b2                	lw	ra,12(sp)
    2268:	4422                	lw	s0,8(sp)
    226a:	4492                	lw	s1,4(sp)
    226c:	4902                	lw	s2,0(sp)
    226e:	0141                	addi	sp,sp,16
    2270:	8082                	ret
    2272:	06840413          	addi	s0,s0,104
    2276:	bf71                	j	2212 <__sfp+0x22>
    2278:	4591                	li	a1,4
    227a:	854a                	mv	a0,s2
    227c:	35e1                	jal	2144 <__sfmoreglue>
    227e:	c088                	sw	a0,0(s1)
    2280:	fd51                	bnez	a0,221c <__sfp+0x2c>
    2282:	47b1                	li	a5,12
    2284:	00f92023          	sw	a5,0(s2)
    2288:	4401                	li	s0,0
    228a:	bfe9                	j	2264 <__sfp+0x74>

0000228c <_fwalk_reent>:
    228c:	7179                	addi	sp,sp,-48
    228e:	d422                	sw	s0,40(sp)
    2290:	d04a                	sw	s2,32(sp)
    2292:	cc52                	sw	s4,24(sp)
    2294:	ca56                	sw	s5,20(sp)
    2296:	c85a                	sw	s6,16(sp)
    2298:	c65e                	sw	s7,12(sp)
    229a:	d606                	sw	ra,44(sp)
    229c:	d226                	sw	s1,36(sp)
    229e:	ce4e                	sw	s3,28(sp)
    22a0:	8a2a                	mv	s4,a0
    22a2:	8aae                	mv	s5,a1
    22a4:	04850413          	addi	s0,a0,72
    22a8:	4901                	li	s2,0
    22aa:	4b05                	li	s6,1
    22ac:	5bfd                	li	s7,-1
    22ae:	ec09                	bnez	s0,22c8 <_fwalk_reent+0x3c>
    22b0:	50b2                	lw	ra,44(sp)
    22b2:	5422                	lw	s0,40(sp)
    22b4:	854a                	mv	a0,s2
    22b6:	5492                	lw	s1,36(sp)
    22b8:	5902                	lw	s2,32(sp)
    22ba:	49f2                	lw	s3,28(sp)
    22bc:	4a62                	lw	s4,24(sp)
    22be:	4ad2                	lw	s5,20(sp)
    22c0:	4b42                	lw	s6,16(sp)
    22c2:	4bb2                	lw	s7,12(sp)
    22c4:	6145                	addi	sp,sp,48
    22c6:	8082                	ret
    22c8:	4404                	lw	s1,8(s0)
    22ca:	00442983          	lw	s3,4(s0)
    22ce:	19fd                	addi	s3,s3,-1
    22d0:	0009d463          	bgez	s3,22d8 <_fwalk_reent+0x4c>
    22d4:	4000                	lw	s0,0(s0)
    22d6:	bfe1                	j	22ae <_fwalk_reent+0x22>
    22d8:	24de                	lhu	a5,12(s1)
    22da:	00fb7b63          	bgeu	s6,a5,22f0 <_fwalk_reent+0x64>
    22de:	00e49783          	lh	a5,14(s1)
    22e2:	01778763          	beq	a5,s7,22f0 <_fwalk_reent+0x64>
    22e6:	85a6                	mv	a1,s1
    22e8:	8552                	mv	a0,s4
    22ea:	9a82                	jalr	s5
    22ec:	00a96933          	or	s2,s2,a0
    22f0:	06848493          	addi	s1,s1,104
    22f4:	bfe9                	j	22ce <_fwalk_reent+0x42>

000022f6 <_malloc_r>:
    22f6:	1101                	addi	sp,sp,-32
    22f8:	ca26                	sw	s1,20(sp)
    22fa:	00358493          	addi	s1,a1,3
    22fe:	98f1                	andi	s1,s1,-4
    2300:	ce06                	sw	ra,28(sp)
    2302:	cc22                	sw	s0,24(sp)
    2304:	c84a                	sw	s2,16(sp)
    2306:	c64e                	sw	s3,12(sp)
    2308:	04a1                	addi	s1,s1,8
    230a:	47b1                	li	a5,12
    230c:	04f4f363          	bgeu	s1,a5,2352 <_malloc_r+0x5c>
    2310:	44b1                	li	s1,12
    2312:	04b4e263          	bltu	s1,a1,2356 <_malloc_r+0x60>
    2316:	892a                	mv	s2,a0
    2318:	4f3000ef          	jal	ra,300a <__malloc_lock>
    231c:	85018793          	addi	a5,gp,-1968 # 20000148 <__malloc_free_list>
    2320:	4398                	lw	a4,0(a5)
    2322:	843a                	mv	s0,a4
    2324:	e039                	bnez	s0,236a <_malloc_r+0x74>
    2326:	85418793          	addi	a5,gp,-1964 # 2000014c <__malloc_sbrk_start>
    232a:	439c                	lw	a5,0(a5)
    232c:	e791                	bnez	a5,2338 <_malloc_r+0x42>
    232e:	4581                	li	a1,0
    2330:	854a                	mv	a0,s2
    2332:	2f0d                	jal	2a64 <_sbrk_r>
    2334:	84a1aa23          	sw	a0,-1964(gp) # 2000014c <__malloc_sbrk_start>
    2338:	85a6                	mv	a1,s1
    233a:	854a                	mv	a0,s2
    233c:	2725                	jal	2a64 <_sbrk_r>
    233e:	59fd                	li	s3,-1
    2340:	07351963          	bne	a0,s3,23b2 <_malloc_r+0xbc>
    2344:	47b1                	li	a5,12
    2346:	00f92023          	sw	a5,0(s2)
    234a:	854a                	mv	a0,s2
    234c:	4c1000ef          	jal	ra,300c <__malloc_unlock>
    2350:	a029                	j	235a <_malloc_r+0x64>
    2352:	fc04d0e3          	bgez	s1,2312 <_malloc_r+0x1c>
    2356:	47b1                	li	a5,12
    2358:	c11c                	sw	a5,0(a0)
    235a:	4501                	li	a0,0
    235c:	40f2                	lw	ra,28(sp)
    235e:	4462                	lw	s0,24(sp)
    2360:	44d2                	lw	s1,20(sp)
    2362:	4942                	lw	s2,16(sp)
    2364:	49b2                	lw	s3,12(sp)
    2366:	6105                	addi	sp,sp,32
    2368:	8082                	ret
    236a:	401c                	lw	a5,0(s0)
    236c:	8f85                	sub	a5,a5,s1
    236e:	0207cf63          	bltz	a5,23ac <_malloc_r+0xb6>
    2372:	46ad                	li	a3,11
    2374:	00f6f663          	bgeu	a3,a5,2380 <_malloc_r+0x8a>
    2378:	c01c                	sw	a5,0(s0)
    237a:	943e                	add	s0,s0,a5
    237c:	c004                	sw	s1,0(s0)
    237e:	a031                	j	238a <_malloc_r+0x94>
    2380:	405c                	lw	a5,4(s0)
    2382:	02871363          	bne	a4,s0,23a8 <_malloc_r+0xb2>
    2386:	84f1a823          	sw	a5,-1968(gp) # 20000148 <__malloc_free_list>
    238a:	854a                	mv	a0,s2
    238c:	481000ef          	jal	ra,300c <__malloc_unlock>
    2390:	00b40513          	addi	a0,s0,11
    2394:	00440793          	addi	a5,s0,4
    2398:	9961                	andi	a0,a0,-8
    239a:	40f50733          	sub	a4,a0,a5
    239e:	df5d                	beqz	a4,235c <_malloc_r+0x66>
    23a0:	943a                	add	s0,s0,a4
    23a2:	8f89                	sub	a5,a5,a0
    23a4:	c01c                	sw	a5,0(s0)
    23a6:	bf5d                	j	235c <_malloc_r+0x66>
    23a8:	c35c                	sw	a5,4(a4)
    23aa:	b7c5                	j	238a <_malloc_r+0x94>
    23ac:	8722                	mv	a4,s0
    23ae:	4040                	lw	s0,4(s0)
    23b0:	bf95                	j	2324 <_malloc_r+0x2e>
    23b2:	00350413          	addi	s0,a0,3
    23b6:	9871                	andi	s0,s0,-4
    23b8:	fc8502e3          	beq	a0,s0,237c <_malloc_r+0x86>
    23bc:	40a405b3          	sub	a1,s0,a0
    23c0:	854a                	mv	a0,s2
    23c2:	254d                	jal	2a64 <_sbrk_r>
    23c4:	fb351ce3          	bne	a0,s3,237c <_malloc_r+0x86>
    23c8:	bfb5                	j	2344 <_malloc_r+0x4e>

000023ca <__sfputc_r>:
    23ca:	461c                	lw	a5,8(a2)
    23cc:	17fd                	addi	a5,a5,-1
    23ce:	c61c                	sw	a5,8(a2)
    23d0:	0007d963          	bgez	a5,23e2 <__sfputc_r+0x18>
    23d4:	4e18                	lw	a4,24(a2)
    23d6:	00e7c563          	blt	a5,a4,23e0 <__sfputc_r+0x16>
    23da:	47a9                	li	a5,10
    23dc:	00f59363          	bne	a1,a5,23e2 <__sfputc_r+0x18>
    23e0:	afa1                	j	2b38 <__swbuf_r>
    23e2:	421c                	lw	a5,0(a2)
    23e4:	852e                	mv	a0,a1
    23e6:	00178713          	addi	a4,a5,1 # ffff0001 <_eusrstack+0xdffe8001>
    23ea:	c218                	sw	a4,0(a2)
    23ec:	a38c                	sb	a1,0(a5)
    23ee:	8082                	ret

000023f0 <__sfputs_r>:
    23f0:	1101                	addi	sp,sp,-32
    23f2:	cc22                	sw	s0,24(sp)
    23f4:	ca26                	sw	s1,20(sp)
    23f6:	c84a                	sw	s2,16(sp)
    23f8:	c64e                	sw	s3,12(sp)
    23fa:	c452                	sw	s4,8(sp)
    23fc:	ce06                	sw	ra,28(sp)
    23fe:	892a                	mv	s2,a0
    2400:	89ae                	mv	s3,a1
    2402:	8432                	mv	s0,a2
    2404:	00d604b3          	add	s1,a2,a3
    2408:	5a7d                	li	s4,-1
    240a:	00941463          	bne	s0,s1,2412 <__sfputs_r+0x22>
    240e:	4501                	li	a0,0
    2410:	a801                	j	2420 <__sfputs_r+0x30>
    2412:	200c                	lbu	a1,0(s0)
    2414:	864e                	mv	a2,s3
    2416:	854a                	mv	a0,s2
    2418:	3f4d                	jal	23ca <__sfputc_r>
    241a:	0405                	addi	s0,s0,1
    241c:	ff4517e3          	bne	a0,s4,240a <__sfputs_r+0x1a>
    2420:	40f2                	lw	ra,28(sp)
    2422:	4462                	lw	s0,24(sp)
    2424:	44d2                	lw	s1,20(sp)
    2426:	4942                	lw	s2,16(sp)
    2428:	49b2                	lw	s3,12(sp)
    242a:	4a22                	lw	s4,8(sp)
    242c:	6105                	addi	sp,sp,32
    242e:	8082                	ret

00002430 <_vfiprintf_r>:
    2430:	7135                	addi	sp,sp,-160
    2432:	cd22                	sw	s0,152(sp)
    2434:	cb26                	sw	s1,148(sp)
    2436:	c94a                	sw	s2,144(sp)
    2438:	c74e                	sw	s3,140(sp)
    243a:	cf06                	sw	ra,156(sp)
    243c:	c552                	sw	s4,136(sp)
    243e:	c356                	sw	s5,132(sp)
    2440:	c15a                	sw	s6,128(sp)
    2442:	dede                	sw	s7,124(sp)
    2444:	dce2                	sw	s8,120(sp)
    2446:	dae6                	sw	s9,116(sp)
    2448:	89aa                	mv	s3,a0
    244a:	84ae                	mv	s1,a1
    244c:	8932                	mv	s2,a2
    244e:	8436                	mv	s0,a3
    2450:	c501                	beqz	a0,2458 <_vfiprintf_r+0x28>
    2452:	4d1c                	lw	a5,24(a0)
    2454:	e391                	bnez	a5,2458 <_vfiprintf_r+0x28>
    2456:	3b15                	jal	218a <__sinit>
    2458:	00001797          	auipc	a5,0x1
    245c:	e8478793          	addi	a5,a5,-380 # 32dc <__sf_fake_stdin>
    2460:	0cf49863          	bne	s1,a5,2530 <_vfiprintf_r+0x100>
    2464:	0049a483          	lw	s1,4(s3)
    2468:	24de                	lhu	a5,12(s1)
    246a:	8ba1                	andi	a5,a5,8
    246c:	c7e5                	beqz	a5,2554 <_vfiprintf_r+0x124>
    246e:	489c                	lw	a5,16(s1)
    2470:	c3f5                	beqz	a5,2554 <_vfiprintf_r+0x124>
    2472:	02000793          	li	a5,32
    2476:	02f104a3          	sb	a5,41(sp)
    247a:	03000793          	li	a5,48
    247e:	d202                	sw	zero,36(sp)
    2480:	02f10523          	sb	a5,42(sp)
    2484:	c622                	sw	s0,12(sp)
    2486:	02500b93          	li	s7,37
    248a:	00001a97          	auipc	s5,0x1
    248e:	e92a8a93          	addi	s5,s5,-366 # 331c <__sf_fake_stdout+0x20>
    2492:	4c05                	li	s8,1
    2494:	4b29                	li	s6,10
    2496:	844a                	mv	s0,s2
    2498:	201c                	lbu	a5,0(s0)
    249a:	c399                	beqz	a5,24a0 <_vfiprintf_r+0x70>
    249c:	0d779e63          	bne	a5,s7,2578 <_vfiprintf_r+0x148>
    24a0:	41240cb3          	sub	s9,s0,s2
    24a4:	000c8d63          	beqz	s9,24be <_vfiprintf_r+0x8e>
    24a8:	86e6                	mv	a3,s9
    24aa:	864a                	mv	a2,s2
    24ac:	85a6                	mv	a1,s1
    24ae:	854e                	mv	a0,s3
    24b0:	3781                	jal	23f0 <__sfputs_r>
    24b2:	57fd                	li	a5,-1
    24b4:	1ef50163          	beq	a0,a5,2696 <_vfiprintf_r+0x266>
    24b8:	5692                	lw	a3,36(sp)
    24ba:	96e6                	add	a3,a3,s9
    24bc:	d236                	sw	a3,36(sp)
    24be:	201c                	lbu	a5,0(s0)
    24c0:	1c078b63          	beqz	a5,2696 <_vfiprintf_r+0x266>
    24c4:	57fd                	li	a5,-1
    24c6:	00140913          	addi	s2,s0,1
    24ca:	c802                	sw	zero,16(sp)
    24cc:	ce02                	sw	zero,28(sp)
    24ce:	ca3e                	sw	a5,20(sp)
    24d0:	cc02                	sw	zero,24(sp)
    24d2:	040109a3          	sb	zero,83(sp)
    24d6:	d482                	sw	zero,104(sp)
    24d8:	00094583          	lbu	a1,0(s2)
    24dc:	4615                	li	a2,5
    24de:	8556                	mv	a0,s5
    24e0:	313000ef          	jal	ra,2ff2 <memchr>
    24e4:	00190413          	addi	s0,s2,1
    24e8:	47c2                	lw	a5,16(sp)
    24ea:	e949                	bnez	a0,257c <_vfiprintf_r+0x14c>
    24ec:	0107f713          	andi	a4,a5,16
    24f0:	c709                	beqz	a4,24fa <_vfiprintf_r+0xca>
    24f2:	02000713          	li	a4,32
    24f6:	04e109a3          	sb	a4,83(sp)
    24fa:	0087f713          	andi	a4,a5,8
    24fe:	c709                	beqz	a4,2508 <_vfiprintf_r+0xd8>
    2500:	02b00713          	li	a4,43
    2504:	04e109a3          	sb	a4,83(sp)
    2508:	00094683          	lbu	a3,0(s2)
    250c:	02a00713          	li	a4,42
    2510:	06e68e63          	beq	a3,a4,258c <_vfiprintf_r+0x15c>
    2514:	47f2                	lw	a5,28(sp)
    2516:	844a                	mv	s0,s2
    2518:	4681                	li	a3,0
    251a:	4625                	li	a2,9
    251c:	2018                	lbu	a4,0(s0)
    251e:	00140593          	addi	a1,s0,1
    2522:	fd070713          	addi	a4,a4,-48
    2526:	0ae67663          	bgeu	a2,a4,25d2 <_vfiprintf_r+0x1a2>
    252a:	caad                	beqz	a3,259c <_vfiprintf_r+0x16c>
    252c:	ce3e                	sw	a5,28(sp)
    252e:	a0bd                	j	259c <_vfiprintf_r+0x16c>
    2530:	00001797          	auipc	a5,0x1
    2534:	dcc78793          	addi	a5,a5,-564 # 32fc <__sf_fake_stdout>
    2538:	00f49563          	bne	s1,a5,2542 <_vfiprintf_r+0x112>
    253c:	0089a483          	lw	s1,8(s3)
    2540:	b725                	j	2468 <_vfiprintf_r+0x38>
    2542:	00001797          	auipc	a5,0x1
    2546:	d7a78793          	addi	a5,a5,-646 # 32bc <__sf_fake_stderr>
    254a:	f0f49fe3          	bne	s1,a5,2468 <_vfiprintf_r+0x38>
    254e:	00c9a483          	lw	s1,12(s3)
    2552:	bf19                	j	2468 <_vfiprintf_r+0x38>
    2554:	85a6                	mv	a1,s1
    2556:	854e                	mv	a0,s3
    2558:	25f1                	jal	2c24 <__swsetup_r>
    255a:	dd01                	beqz	a0,2472 <_vfiprintf_r+0x42>
    255c:	557d                	li	a0,-1
    255e:	40fa                	lw	ra,156(sp)
    2560:	446a                	lw	s0,152(sp)
    2562:	44da                	lw	s1,148(sp)
    2564:	494a                	lw	s2,144(sp)
    2566:	49ba                	lw	s3,140(sp)
    2568:	4a2a                	lw	s4,136(sp)
    256a:	4a9a                	lw	s5,132(sp)
    256c:	4b0a                	lw	s6,128(sp)
    256e:	5bf6                	lw	s7,124(sp)
    2570:	5c66                	lw	s8,120(sp)
    2572:	5cd6                	lw	s9,116(sp)
    2574:	610d                	addi	sp,sp,160
    2576:	8082                	ret
    2578:	0405                	addi	s0,s0,1
    257a:	bf39                	j	2498 <_vfiprintf_r+0x68>
    257c:	41550533          	sub	a0,a0,s5
    2580:	00ac1533          	sll	a0,s8,a0
    2584:	8fc9                	or	a5,a5,a0
    2586:	c83e                	sw	a5,16(sp)
    2588:	8922                	mv	s2,s0
    258a:	b7b9                	j	24d8 <_vfiprintf_r+0xa8>
    258c:	4732                	lw	a4,12(sp)
    258e:	00470693          	addi	a3,a4,4
    2592:	4318                	lw	a4,0(a4)
    2594:	c636                	sw	a3,12(sp)
    2596:	02074763          	bltz	a4,25c4 <_vfiprintf_r+0x194>
    259a:	ce3a                	sw	a4,28(sp)
    259c:	2018                	lbu	a4,0(s0)
    259e:	02e00793          	li	a5,46
    25a2:	04f71d63          	bne	a4,a5,25fc <_vfiprintf_r+0x1cc>
    25a6:	3018                	lbu	a4,1(s0)
    25a8:	02a00793          	li	a5,42
    25ac:	02f71b63          	bne	a4,a5,25e2 <_vfiprintf_r+0x1b2>
    25b0:	47b2                	lw	a5,12(sp)
    25b2:	0409                	addi	s0,s0,2
    25b4:	00478713          	addi	a4,a5,4
    25b8:	439c                	lw	a5,0(a5)
    25ba:	c63a                	sw	a4,12(sp)
    25bc:	0207c163          	bltz	a5,25de <_vfiprintf_r+0x1ae>
    25c0:	ca3e                	sw	a5,20(sp)
    25c2:	a82d                	j	25fc <_vfiprintf_r+0x1cc>
    25c4:	40e00733          	neg	a4,a4
    25c8:	0027e793          	ori	a5,a5,2
    25cc:	ce3a                	sw	a4,28(sp)
    25ce:	c83e                	sw	a5,16(sp)
    25d0:	b7f1                	j	259c <_vfiprintf_r+0x16c>
    25d2:	036787b3          	mul	a5,a5,s6
    25d6:	4685                	li	a3,1
    25d8:	842e                	mv	s0,a1
    25da:	97ba                	add	a5,a5,a4
    25dc:	b781                	j	251c <_vfiprintf_r+0xec>
    25de:	57fd                	li	a5,-1
    25e0:	b7c5                	j	25c0 <_vfiprintf_r+0x190>
    25e2:	0405                	addi	s0,s0,1
    25e4:	ca02                	sw	zero,20(sp)
    25e6:	4681                	li	a3,0
    25e8:	4781                	li	a5,0
    25ea:	4625                	li	a2,9
    25ec:	2018                	lbu	a4,0(s0)
    25ee:	00140593          	addi	a1,s0,1
    25f2:	fd070713          	addi	a4,a4,-48
    25f6:	06e67663          	bgeu	a2,a4,2662 <_vfiprintf_r+0x232>
    25fa:	f2f9                	bnez	a3,25c0 <_vfiprintf_r+0x190>
    25fc:	200c                	lbu	a1,0(s0)
    25fe:	460d                	li	a2,3
    2600:	00001517          	auipc	a0,0x1
    2604:	d2450513          	addi	a0,a0,-732 # 3324 <__sf_fake_stdout+0x28>
    2608:	1eb000ef          	jal	ra,2ff2 <memchr>
    260c:	cd11                	beqz	a0,2628 <_vfiprintf_r+0x1f8>
    260e:	00001797          	auipc	a5,0x1
    2612:	d1678793          	addi	a5,a5,-746 # 3324 <__sf_fake_stdout+0x28>
    2616:	8d1d                	sub	a0,a0,a5
    2618:	04000793          	li	a5,64
    261c:	00a797b3          	sll	a5,a5,a0
    2620:	4542                	lw	a0,16(sp)
    2622:	0405                	addi	s0,s0,1
    2624:	8d5d                	or	a0,a0,a5
    2626:	c82a                	sw	a0,16(sp)
    2628:	200c                	lbu	a1,0(s0)
    262a:	4619                	li	a2,6
    262c:	00001517          	auipc	a0,0x1
    2630:	cfc50513          	addi	a0,a0,-772 # 3328 <__sf_fake_stdout+0x2c>
    2634:	00140913          	addi	s2,s0,1
    2638:	02b10423          	sb	a1,40(sp)
    263c:	1b7000ef          	jal	ra,2ff2 <memchr>
    2640:	c135                	beqz	a0,26a4 <_vfiprintf_r+0x274>
    2642:	ffffe797          	auipc	a5,0xffffe
    2646:	9be78793          	addi	a5,a5,-1602 # 0 <_sinit>
    264a:	e795                	bnez	a5,2676 <_vfiprintf_r+0x246>
    264c:	4742                	lw	a4,16(sp)
    264e:	47b2                	lw	a5,12(sp)
    2650:	10077713          	andi	a4,a4,256
    2654:	cf09                	beqz	a4,266e <_vfiprintf_r+0x23e>
    2656:	0791                	addi	a5,a5,4
    2658:	c63e                	sw	a5,12(sp)
    265a:	5792                	lw	a5,36(sp)
    265c:	97d2                	add	a5,a5,s4
    265e:	d23e                	sw	a5,36(sp)
    2660:	bd1d                	j	2496 <_vfiprintf_r+0x66>
    2662:	036787b3          	mul	a5,a5,s6
    2666:	4685                	li	a3,1
    2668:	842e                	mv	s0,a1
    266a:	97ba                	add	a5,a5,a4
    266c:	b741                	j	25ec <_vfiprintf_r+0x1bc>
    266e:	079d                	addi	a5,a5,7
    2670:	9be1                	andi	a5,a5,-8
    2672:	07a1                	addi	a5,a5,8
    2674:	b7d5                	j	2658 <_vfiprintf_r+0x228>
    2676:	0078                	addi	a4,sp,12
    2678:	00000697          	auipc	a3,0x0
    267c:	d7868693          	addi	a3,a3,-648 # 23f0 <__sfputs_r>
    2680:	8626                	mv	a2,s1
    2682:	080c                	addi	a1,sp,16
    2684:	854e                	mv	a0,s3
    2686:	00000097          	auipc	ra,0x0
    268a:	000000e7          	jalr	zero # 0 <_sinit>
    268e:	57fd                	li	a5,-1
    2690:	8a2a                	mv	s4,a0
    2692:	fcf514e3          	bne	a0,a5,265a <_vfiprintf_r+0x22a>
    2696:	24de                	lhu	a5,12(s1)
    2698:	0407f793          	andi	a5,a5,64
    269c:	ec0790e3          	bnez	a5,255c <_vfiprintf_r+0x12c>
    26a0:	5512                	lw	a0,36(sp)
    26a2:	bd75                	j	255e <_vfiprintf_r+0x12e>
    26a4:	0078                	addi	a4,sp,12
    26a6:	00000697          	auipc	a3,0x0
    26aa:	d4a68693          	addi	a3,a3,-694 # 23f0 <__sfputs_r>
    26ae:	8626                	mv	a2,s1
    26b0:	080c                	addi	a1,sp,16
    26b2:	854e                	mv	a0,s3
    26b4:	2a01                	jal	27c4 <_printf_i>
    26b6:	bfe1                	j	268e <_vfiprintf_r+0x25e>

000026b8 <_printf_common>:
    26b8:	7179                	addi	sp,sp,-48
    26ba:	ca56                	sw	s5,20(sp)
    26bc:	499c                	lw	a5,16(a1)
    26be:	8aba                	mv	s5,a4
    26c0:	4598                	lw	a4,8(a1)
    26c2:	d422                	sw	s0,40(sp)
    26c4:	d226                	sw	s1,36(sp)
    26c6:	ce4e                	sw	s3,28(sp)
    26c8:	cc52                	sw	s4,24(sp)
    26ca:	d606                	sw	ra,44(sp)
    26cc:	d04a                	sw	s2,32(sp)
    26ce:	c85a                	sw	s6,16(sp)
    26d0:	c65e                	sw	s7,12(sp)
    26d2:	89aa                	mv	s3,a0
    26d4:	842e                	mv	s0,a1
    26d6:	84b2                	mv	s1,a2
    26d8:	8a36                	mv	s4,a3
    26da:	00e7d363          	bge	a5,a4,26e0 <_printf_common+0x28>
    26de:	87ba                	mv	a5,a4
    26e0:	c09c                	sw	a5,0(s1)
    26e2:	04344703          	lbu	a4,67(s0)
    26e6:	c319                	beqz	a4,26ec <_printf_common+0x34>
    26e8:	0785                	addi	a5,a5,1
    26ea:	c09c                	sw	a5,0(s1)
    26ec:	401c                	lw	a5,0(s0)
    26ee:	0207f793          	andi	a5,a5,32
    26f2:	c781                	beqz	a5,26fa <_printf_common+0x42>
    26f4:	409c                	lw	a5,0(s1)
    26f6:	0789                	addi	a5,a5,2
    26f8:	c09c                	sw	a5,0(s1)
    26fa:	00042903          	lw	s2,0(s0)
    26fe:	00697913          	andi	s2,s2,6
    2702:	00091a63          	bnez	s2,2716 <_printf_common+0x5e>
    2706:	01940b13          	addi	s6,s0,25
    270a:	5bfd                	li	s7,-1
    270c:	445c                	lw	a5,12(s0)
    270e:	4098                	lw	a4,0(s1)
    2710:	8f99                	sub	a5,a5,a4
    2712:	04f94c63          	blt	s2,a5,276a <_printf_common+0xb2>
    2716:	401c                	lw	a5,0(s0)
    2718:	04344683          	lbu	a3,67(s0)
    271c:	0207f793          	andi	a5,a5,32
    2720:	00d036b3          	snez	a3,a3
    2724:	eba5                	bnez	a5,2794 <_printf_common+0xdc>
    2726:	04340613          	addi	a2,s0,67
    272a:	85d2                	mv	a1,s4
    272c:	854e                	mv	a0,s3
    272e:	9a82                	jalr	s5
    2730:	57fd                	li	a5,-1
    2732:	04f50363          	beq	a0,a5,2778 <_printf_common+0xc0>
    2736:	401c                	lw	a5,0(s0)
    2738:	4611                	li	a2,4
    273a:	4098                	lw	a4,0(s1)
    273c:	8b99                	andi	a5,a5,6
    273e:	4454                	lw	a3,12(s0)
    2740:	4481                	li	s1,0
    2742:	00c79763          	bne	a5,a2,2750 <_printf_common+0x98>
    2746:	40e684b3          	sub	s1,a3,a4
    274a:	0004d363          	bgez	s1,2750 <_printf_common+0x98>
    274e:	4481                	li	s1,0
    2750:	441c                	lw	a5,8(s0)
    2752:	4818                	lw	a4,16(s0)
    2754:	00f75463          	bge	a4,a5,275c <_printf_common+0xa4>
    2758:	8f99                	sub	a5,a5,a4
    275a:	94be                	add	s1,s1,a5
    275c:	4901                	li	s2,0
    275e:	0469                	addi	s0,s0,26
    2760:	5b7d                	li	s6,-1
    2762:	05249863          	bne	s1,s2,27b2 <_printf_common+0xfa>
    2766:	4501                	li	a0,0
    2768:	a809                	j	277a <_printf_common+0xc2>
    276a:	4685                	li	a3,1
    276c:	865a                	mv	a2,s6
    276e:	85d2                	mv	a1,s4
    2770:	854e                	mv	a0,s3
    2772:	9a82                	jalr	s5
    2774:	01751e63          	bne	a0,s7,2790 <_printf_common+0xd8>
    2778:	557d                	li	a0,-1
    277a:	50b2                	lw	ra,44(sp)
    277c:	5422                	lw	s0,40(sp)
    277e:	5492                	lw	s1,36(sp)
    2780:	5902                	lw	s2,32(sp)
    2782:	49f2                	lw	s3,28(sp)
    2784:	4a62                	lw	s4,24(sp)
    2786:	4ad2                	lw	s5,20(sp)
    2788:	4b42                	lw	s6,16(sp)
    278a:	4bb2                	lw	s7,12(sp)
    278c:	6145                	addi	sp,sp,48
    278e:	8082                	ret
    2790:	0905                	addi	s2,s2,1
    2792:	bfad                	j	270c <_printf_common+0x54>
    2794:	00d40733          	add	a4,s0,a3
    2798:	03000613          	li	a2,48
    279c:	04c701a3          	sb	a2,67(a4)
    27a0:	04544703          	lbu	a4,69(s0)
    27a4:	00168793          	addi	a5,a3,1
    27a8:	97a2                	add	a5,a5,s0
    27aa:	0689                	addi	a3,a3,2
    27ac:	04e781a3          	sb	a4,67(a5)
    27b0:	bf9d                	j	2726 <_printf_common+0x6e>
    27b2:	4685                	li	a3,1
    27b4:	8622                	mv	a2,s0
    27b6:	85d2                	mv	a1,s4
    27b8:	854e                	mv	a0,s3
    27ba:	9a82                	jalr	s5
    27bc:	fb650ee3          	beq	a0,s6,2778 <_printf_common+0xc0>
    27c0:	0905                	addi	s2,s2,1
    27c2:	b745                	j	2762 <_printf_common+0xaa>

000027c4 <_printf_i>:
    27c4:	7179                	addi	sp,sp,-48
    27c6:	d422                	sw	s0,40(sp)
    27c8:	d226                	sw	s1,36(sp)
    27ca:	d04a                	sw	s2,32(sp)
    27cc:	ce4e                	sw	s3,28(sp)
    27ce:	d606                	sw	ra,44(sp)
    27d0:	cc52                	sw	s4,24(sp)
    27d2:	ca56                	sw	s5,20(sp)
    27d4:	c85a                	sw	s6,16(sp)
    27d6:	89b6                	mv	s3,a3
    27d8:	2d94                	lbu	a3,24(a1)
    27da:	06900793          	li	a5,105
    27de:	8932                	mv	s2,a2
    27e0:	84aa                	mv	s1,a0
    27e2:	842e                	mv	s0,a1
    27e4:	04358613          	addi	a2,a1,67
    27e8:	02f68d63          	beq	a3,a5,2822 <_printf_i+0x5e>
    27ec:	06d7e263          	bltu	a5,a3,2850 <_printf_i+0x8c>
    27f0:	05800793          	li	a5,88
    27f4:	18f68563          	beq	a3,a5,297e <_printf_i+0x1ba>
    27f8:	00d7ed63          	bltu	a5,a3,2812 <_printf_i+0x4e>
    27fc:	20068d63          	beqz	a3,2a16 <_printf_i+0x252>
    2800:	04300793          	li	a5,67
    2804:	0af68e63          	beq	a3,a5,28c0 <_printf_i+0xfc>
    2808:	04240a93          	addi	s5,s0,66
    280c:	04d40123          	sb	a3,66(s0)
    2810:	a0c9                	j	28d2 <_printf_i+0x10e>
    2812:	06300793          	li	a5,99
    2816:	0af68563          	beq	a3,a5,28c0 <_printf_i+0xfc>
    281a:	06400793          	li	a5,100
    281e:	fef695e3          	bne	a3,a5,2808 <_printf_i+0x44>
    2822:	401c                	lw	a5,0(s0)
    2824:	4308                	lw	a0,0(a4)
    2826:	0807f693          	andi	a3,a5,128
    282a:	00450593          	addi	a1,a0,4
    282e:	c6c5                	beqz	a3,28d6 <_printf_i+0x112>
    2830:	411c                	lw	a5,0(a0)
    2832:	c30c                	sw	a1,0(a4)
    2834:	0007d863          	bgez	a5,2844 <_printf_i+0x80>
    2838:	02d00713          	li	a4,45
    283c:	40f007b3          	neg	a5,a5
    2840:	04e401a3          	sb	a4,67(s0)
    2844:	00001697          	auipc	a3,0x1
    2848:	aec68693          	addi	a3,a3,-1300 # 3330 <__sf_fake_stdout+0x34>
    284c:	4729                	li	a4,10
    284e:	a865                	j	2906 <_printf_i+0x142>
    2850:	07000793          	li	a5,112
    2854:	16f68163          	beq	a3,a5,29b6 <_printf_i+0x1f2>
    2858:	02d7e563          	bltu	a5,a3,2882 <_printf_i+0xbe>
    285c:	06e00793          	li	a5,110
    2860:	18f68863          	beq	a3,a5,29f0 <_printf_i+0x22c>
    2864:	06f00793          	li	a5,111
    2868:	faf690e3          	bne	a3,a5,2808 <_printf_i+0x44>
    286c:	400c                	lw	a1,0(s0)
    286e:	431c                	lw	a5,0(a4)
    2870:	0805f813          	andi	a6,a1,128
    2874:	00478513          	addi	a0,a5,4
    2878:	06080763          	beqz	a6,28e6 <_printf_i+0x122>
    287c:	c308                	sw	a0,0(a4)
    287e:	439c                	lw	a5,0(a5)
    2880:	a885                	j	28f0 <_printf_i+0x12c>
    2882:	07500793          	li	a5,117
    2886:	fef683e3          	beq	a3,a5,286c <_printf_i+0xa8>
    288a:	07800793          	li	a5,120
    288e:	12f68863          	beq	a3,a5,29be <_printf_i+0x1fa>
    2892:	07300793          	li	a5,115
    2896:	f6f699e3          	bne	a3,a5,2808 <_printf_i+0x44>
    289a:	431c                	lw	a5,0(a4)
    289c:	41d0                	lw	a2,4(a1)
    289e:	4581                	li	a1,0
    28a0:	00478693          	addi	a3,a5,4
    28a4:	c314                	sw	a3,0(a4)
    28a6:	0007aa83          	lw	s5,0(a5)
    28aa:	8556                	mv	a0,s5
    28ac:	2799                	jal	2ff2 <memchr>
    28ae:	c501                	beqz	a0,28b6 <_printf_i+0xf2>
    28b0:	41550533          	sub	a0,a0,s5
    28b4:	c048                	sw	a0,4(s0)
    28b6:	405c                	lw	a5,4(s0)
    28b8:	c81c                	sw	a5,16(s0)
    28ba:	040401a3          	sb	zero,67(s0)
    28be:	a861                	j	2956 <_printf_i+0x192>
    28c0:	431c                	lw	a5,0(a4)
    28c2:	04240a93          	addi	s5,s0,66
    28c6:	00478693          	addi	a3,a5,4
    28ca:	439c                	lw	a5,0(a5)
    28cc:	c314                	sw	a3,0(a4)
    28ce:	04f40123          	sb	a5,66(s0)
    28d2:	4785                	li	a5,1
    28d4:	b7d5                	j	28b8 <_printf_i+0xf4>
    28d6:	0407f693          	andi	a3,a5,64
    28da:	411c                	lw	a5,0(a0)
    28dc:	c30c                	sw	a1,0(a4)
    28de:	dab9                	beqz	a3,2834 <_printf_i+0x70>
    28e0:	07c2                	slli	a5,a5,0x10
    28e2:	87c1                	srai	a5,a5,0x10
    28e4:	bf81                	j	2834 <_printf_i+0x70>
    28e6:	0405f593          	andi	a1,a1,64
    28ea:	c308                	sw	a0,0(a4)
    28ec:	d9c9                	beqz	a1,287e <_printf_i+0xba>
    28ee:	239e                	lhu	a5,0(a5)
    28f0:	06f00713          	li	a4,111
    28f4:	0ee68663          	beq	a3,a4,29e0 <_printf_i+0x21c>
    28f8:	00001697          	auipc	a3,0x1
    28fc:	a3868693          	addi	a3,a3,-1480 # 3330 <__sf_fake_stdout+0x34>
    2900:	4729                	li	a4,10
    2902:	040401a3          	sb	zero,67(s0)
    2906:	404c                	lw	a1,4(s0)
    2908:	c40c                	sw	a1,8(s0)
    290a:	0005c563          	bltz	a1,2914 <_printf_i+0x150>
    290e:	4008                	lw	a0,0(s0)
    2910:	996d                	andi	a0,a0,-5
    2912:	c008                	sw	a0,0(s0)
    2914:	e399                	bnez	a5,291a <_printf_i+0x156>
    2916:	8ab2                	mv	s5,a2
    2918:	cd89                	beqz	a1,2932 <_printf_i+0x16e>
    291a:	8ab2                	mv	s5,a2
    291c:	02e7f5b3          	remu	a1,a5,a4
    2920:	1afd                	addi	s5,s5,-1
    2922:	95b6                	add	a1,a1,a3
    2924:	218c                	lbu	a1,0(a1)
    2926:	00ba8023          	sb	a1,0(s5)
    292a:	02e7d5b3          	divu	a1,a5,a4
    292e:	0ae7ff63          	bgeu	a5,a4,29ec <_printf_i+0x228>
    2932:	47a1                	li	a5,8
    2934:	00f71e63          	bne	a4,a5,2950 <_printf_i+0x18c>
    2938:	401c                	lw	a5,0(s0)
    293a:	8b85                	andi	a5,a5,1
    293c:	cb91                	beqz	a5,2950 <_printf_i+0x18c>
    293e:	4058                	lw	a4,4(s0)
    2940:	481c                	lw	a5,16(s0)
    2942:	00e7c763          	blt	a5,a4,2950 <_printf_i+0x18c>
    2946:	03000793          	li	a5,48
    294a:	fefa8fa3          	sb	a5,-1(s5)
    294e:	1afd                	addi	s5,s5,-1
    2950:	41560633          	sub	a2,a2,s5
    2954:	c810                	sw	a2,16(s0)
    2956:	874e                	mv	a4,s3
    2958:	86ca                	mv	a3,s2
    295a:	0070                	addi	a2,sp,12
    295c:	85a2                	mv	a1,s0
    295e:	8526                	mv	a0,s1
    2960:	3ba1                	jal	26b8 <_printf_common>
    2962:	5a7d                	li	s4,-1
    2964:	0b451d63          	bne	a0,s4,2a1e <_printf_i+0x25a>
    2968:	557d                	li	a0,-1
    296a:	50b2                	lw	ra,44(sp)
    296c:	5422                	lw	s0,40(sp)
    296e:	5492                	lw	s1,36(sp)
    2970:	5902                	lw	s2,32(sp)
    2972:	49f2                	lw	s3,28(sp)
    2974:	4a62                	lw	s4,24(sp)
    2976:	4ad2                	lw	s5,20(sp)
    2978:	4b42                	lw	s6,16(sp)
    297a:	6145                	addi	sp,sp,48
    297c:	8082                	ret
    297e:	04d582a3          	sb	a3,69(a1)
    2982:	00001697          	auipc	a3,0x1
    2986:	9ae68693          	addi	a3,a3,-1618 # 3330 <__sf_fake_stdout+0x34>
    298a:	400c                	lw	a1,0(s0)
    298c:	4308                	lw	a0,0(a4)
    298e:	0805f813          	andi	a6,a1,128
    2992:	411c                	lw	a5,0(a0)
    2994:	0511                	addi	a0,a0,4
    2996:	02080d63          	beqz	a6,29d0 <_printf_i+0x20c>
    299a:	c308                	sw	a0,0(a4)
    299c:	0015f713          	andi	a4,a1,1
    29a0:	c701                	beqz	a4,29a8 <_printf_i+0x1e4>
    29a2:	0205e593          	ori	a1,a1,32
    29a6:	c00c                	sw	a1,0(s0)
    29a8:	4741                	li	a4,16
    29aa:	ffa1                	bnez	a5,2902 <_printf_i+0x13e>
    29ac:	400c                	lw	a1,0(s0)
    29ae:	fdf5f593          	andi	a1,a1,-33
    29b2:	c00c                	sw	a1,0(s0)
    29b4:	b7b9                	j	2902 <_printf_i+0x13e>
    29b6:	419c                	lw	a5,0(a1)
    29b8:	0207e793          	ori	a5,a5,32
    29bc:	c19c                	sw	a5,0(a1)
    29be:	07800793          	li	a5,120
    29c2:	04f402a3          	sb	a5,69(s0)
    29c6:	00001697          	auipc	a3,0x1
    29ca:	97e68693          	addi	a3,a3,-1666 # 3344 <__sf_fake_stdout+0x48>
    29ce:	bf75                	j	298a <_printf_i+0x1c6>
    29d0:	0405f813          	andi	a6,a1,64
    29d4:	c308                	sw	a0,0(a4)
    29d6:	fc0803e3          	beqz	a6,299c <_printf_i+0x1d8>
    29da:	07c2                	slli	a5,a5,0x10
    29dc:	83c1                	srli	a5,a5,0x10
    29de:	bf7d                	j	299c <_printf_i+0x1d8>
    29e0:	00001697          	auipc	a3,0x1
    29e4:	95068693          	addi	a3,a3,-1712 # 3330 <__sf_fake_stdout+0x34>
    29e8:	4721                	li	a4,8
    29ea:	bf21                	j	2902 <_printf_i+0x13e>
    29ec:	87ae                	mv	a5,a1
    29ee:	b73d                	j	291c <_printf_i+0x158>
    29f0:	4194                	lw	a3,0(a1)
    29f2:	431c                	lw	a5,0(a4)
    29f4:	49cc                	lw	a1,20(a1)
    29f6:	0806f813          	andi	a6,a3,128
    29fa:	00478513          	addi	a0,a5,4
    29fe:	00080663          	beqz	a6,2a0a <_printf_i+0x246>
    2a02:	c308                	sw	a0,0(a4)
    2a04:	439c                	lw	a5,0(a5)
    2a06:	c38c                	sw	a1,0(a5)
    2a08:	a039                	j	2a16 <_printf_i+0x252>
    2a0a:	c308                	sw	a0,0(a4)
    2a0c:	0406f693          	andi	a3,a3,64
    2a10:	439c                	lw	a5,0(a5)
    2a12:	daf5                	beqz	a3,2a06 <_printf_i+0x242>
    2a14:	a38e                	sh	a1,0(a5)
    2a16:	00042823          	sw	zero,16(s0)
    2a1a:	8ab2                	mv	s5,a2
    2a1c:	bf2d                	j	2956 <_printf_i+0x192>
    2a1e:	4814                	lw	a3,16(s0)
    2a20:	8656                	mv	a2,s5
    2a22:	85ca                	mv	a1,s2
    2a24:	8526                	mv	a0,s1
    2a26:	9982                	jalr	s3
    2a28:	f54500e3          	beq	a0,s4,2968 <_printf_i+0x1a4>
    2a2c:	401c                	lw	a5,0(s0)
    2a2e:	8b89                	andi	a5,a5,2
    2a30:	e78d                	bnez	a5,2a5a <_printf_i+0x296>
    2a32:	47b2                	lw	a5,12(sp)
    2a34:	4448                	lw	a0,12(s0)
    2a36:	f2f55ae3          	bge	a0,a5,296a <_printf_i+0x1a6>
    2a3a:	853e                	mv	a0,a5
    2a3c:	b73d                	j	296a <_printf_i+0x1a6>
    2a3e:	4685                	li	a3,1
    2a40:	8656                	mv	a2,s5
    2a42:	85ca                	mv	a1,s2
    2a44:	8526                	mv	a0,s1
    2a46:	9982                	jalr	s3
    2a48:	f36500e3          	beq	a0,s6,2968 <_printf_i+0x1a4>
    2a4c:	0a05                	addi	s4,s4,1
    2a4e:	445c                	lw	a5,12(s0)
    2a50:	4732                	lw	a4,12(sp)
    2a52:	8f99                	sub	a5,a5,a4
    2a54:	fefa45e3          	blt	s4,a5,2a3e <_printf_i+0x27a>
    2a58:	bfe9                	j	2a32 <_printf_i+0x26e>
    2a5a:	4a01                	li	s4,0
    2a5c:	01940a93          	addi	s5,s0,25
    2a60:	5b7d                	li	s6,-1
    2a62:	b7f5                	j	2a4e <_printf_i+0x28a>

00002a64 <_sbrk_r>:
    2a64:	1141                	addi	sp,sp,-16
    2a66:	c422                	sw	s0,8(sp)
    2a68:	842a                	mv	s0,a0
    2a6a:	852e                	mv	a0,a1
    2a6c:	f401a023          	sw	zero,-192(gp) # 20000838 <errno>
    2a70:	c606                	sw	ra,12(sp)
    2a72:	d4cff0ef          	jal	ra,1fbe <_sbrk>
    2a76:	57fd                	li	a5,-1
    2a78:	00f51763          	bne	a0,a5,2a86 <_sbrk_r+0x22>
    2a7c:	f4018793          	addi	a5,gp,-192 # 20000838 <errno>
    2a80:	439c                	lw	a5,0(a5)
    2a82:	c391                	beqz	a5,2a86 <_sbrk_r+0x22>
    2a84:	c01c                	sw	a5,0(s0)
    2a86:	40b2                	lw	ra,12(sp)
    2a88:	4422                	lw	s0,8(sp)
    2a8a:	0141                	addi	sp,sp,16
    2a8c:	8082                	ret

00002a8e <__sread>:
    2a8e:	1141                	addi	sp,sp,-16
    2a90:	c422                	sw	s0,8(sp)
    2a92:	842e                	mv	s0,a1
    2a94:	00e59583          	lh	a1,14(a1)
    2a98:	c606                	sw	ra,12(sp)
    2a9a:	2d21                	jal	30b2 <_read_r>
    2a9c:	00054963          	bltz	a0,2aae <__sread+0x20>
    2aa0:	487c                	lw	a5,84(s0)
    2aa2:	97aa                	add	a5,a5,a0
    2aa4:	c87c                	sw	a5,84(s0)
    2aa6:	40b2                	lw	ra,12(sp)
    2aa8:	4422                	lw	s0,8(sp)
    2aaa:	0141                	addi	sp,sp,16
    2aac:	8082                	ret
    2aae:	245e                	lhu	a5,12(s0)
    2ab0:	777d                	lui	a4,0xfffff
    2ab2:	177d                	addi	a4,a4,-1
    2ab4:	8ff9                	and	a5,a5,a4
    2ab6:	a45e                	sh	a5,12(s0)
    2ab8:	b7fd                	j	2aa6 <__sread+0x18>

00002aba <__swrite>:
    2aba:	25de                	lhu	a5,12(a1)
    2abc:	1101                	addi	sp,sp,-32
    2abe:	cc22                	sw	s0,24(sp)
    2ac0:	ca26                	sw	s1,20(sp)
    2ac2:	c84a                	sw	s2,16(sp)
    2ac4:	c64e                	sw	s3,12(sp)
    2ac6:	ce06                	sw	ra,28(sp)
    2ac8:	1007f793          	andi	a5,a5,256
    2acc:	84aa                	mv	s1,a0
    2ace:	842e                	mv	s0,a1
    2ad0:	8932                	mv	s2,a2
    2ad2:	89b6                	mv	s3,a3
    2ad4:	c791                	beqz	a5,2ae0 <__swrite+0x26>
    2ad6:	00e59583          	lh	a1,14(a1)
    2ada:	4689                	li	a3,2
    2adc:	4601                	li	a2,0
    2ade:	2109                	jal	2ee0 <_lseek_r>
    2ae0:	245e                	lhu	a5,12(s0)
    2ae2:	777d                	lui	a4,0xfffff
    2ae4:	177d                	addi	a4,a4,-1
    2ae6:	8ff9                	and	a5,a5,a4
    2ae8:	a45e                	sh	a5,12(s0)
    2aea:	00e41583          	lh	a1,14(s0)
    2aee:	4462                	lw	s0,24(sp)
    2af0:	40f2                	lw	ra,28(sp)
    2af2:	86ce                	mv	a3,s3
    2af4:	864a                	mv	a2,s2
    2af6:	49b2                	lw	s3,12(sp)
    2af8:	4942                	lw	s2,16(sp)
    2afa:	8526                	mv	a0,s1
    2afc:	44d2                	lw	s1,20(sp)
    2afe:	6105                	addi	sp,sp,32
    2b00:	a8dd                	j	2bf6 <_write_r>

00002b02 <__sseek>:
    2b02:	1141                	addi	sp,sp,-16
    2b04:	c422                	sw	s0,8(sp)
    2b06:	842e                	mv	s0,a1
    2b08:	00e59583          	lh	a1,14(a1)
    2b0c:	c606                	sw	ra,12(sp)
    2b0e:	2ec9                	jal	2ee0 <_lseek_r>
    2b10:	57fd                	li	a5,-1
    2b12:	245a                	lhu	a4,12(s0)
    2b14:	00f51a63          	bne	a0,a5,2b28 <__sseek+0x26>
    2b18:	77fd                	lui	a5,0xfffff
    2b1a:	17fd                	addi	a5,a5,-1
    2b1c:	8ff9                	and	a5,a5,a4
    2b1e:	a45e                	sh	a5,12(s0)
    2b20:	40b2                	lw	ra,12(sp)
    2b22:	4422                	lw	s0,8(sp)
    2b24:	0141                	addi	sp,sp,16
    2b26:	8082                	ret
    2b28:	6785                	lui	a5,0x1
    2b2a:	8fd9                	or	a5,a5,a4
    2b2c:	a45e                	sh	a5,12(s0)
    2b2e:	c868                	sw	a0,84(s0)
    2b30:	bfc5                	j	2b20 <__sseek+0x1e>

00002b32 <__sclose>:
    2b32:	00e59583          	lh	a1,14(a1)
    2b36:	a2f5                	j	2d22 <_close_r>

00002b38 <__swbuf_r>:
    2b38:	1101                	addi	sp,sp,-32
    2b3a:	cc22                	sw	s0,24(sp)
    2b3c:	ca26                	sw	s1,20(sp)
    2b3e:	c84a                	sw	s2,16(sp)
    2b40:	ce06                	sw	ra,28(sp)
    2b42:	c64e                	sw	s3,12(sp)
    2b44:	84aa                	mv	s1,a0
    2b46:	892e                	mv	s2,a1
    2b48:	8432                	mv	s0,a2
    2b4a:	c509                	beqz	a0,2b54 <__swbuf_r+0x1c>
    2b4c:	4d1c                	lw	a5,24(a0)
    2b4e:	e399                	bnez	a5,2b54 <__swbuf_r+0x1c>
    2b50:	e3aff0ef          	jal	ra,218a <__sinit>
    2b54:	00000797          	auipc	a5,0x0
    2b58:	78878793          	addi	a5,a5,1928 # 32dc <__sf_fake_stdin>
    2b5c:	06f41763          	bne	s0,a5,2bca <__swbuf_r+0x92>
    2b60:	40c0                	lw	s0,4(s1)
    2b62:	4c1c                	lw	a5,24(s0)
    2b64:	c41c                	sw	a5,8(s0)
    2b66:	245e                	lhu	a5,12(s0)
    2b68:	8ba1                	andi	a5,a5,8
    2b6a:	c3c1                	beqz	a5,2bea <__swbuf_r+0xb2>
    2b6c:	481c                	lw	a5,16(s0)
    2b6e:	cfb5                	beqz	a5,2bea <__swbuf_r+0xb2>
    2b70:	481c                	lw	a5,16(s0)
    2b72:	4008                	lw	a0,0(s0)
    2b74:	0ff97993          	andi	s3,s2,255
    2b78:	0ff97913          	andi	s2,s2,255
    2b7c:	8d1d                	sub	a0,a0,a5
    2b7e:	485c                	lw	a5,20(s0)
    2b80:	00f54663          	blt	a0,a5,2b8c <__swbuf_r+0x54>
    2b84:	85a2                	mv	a1,s0
    2b86:	8526                	mv	a0,s1
    2b88:	2ccd                	jal	2e7a <_fflush_r>
    2b8a:	e525                	bnez	a0,2bf2 <__swbuf_r+0xba>
    2b8c:	441c                	lw	a5,8(s0)
    2b8e:	0505                	addi	a0,a0,1
    2b90:	17fd                	addi	a5,a5,-1
    2b92:	c41c                	sw	a5,8(s0)
    2b94:	401c                	lw	a5,0(s0)
    2b96:	00178713          	addi	a4,a5,1
    2b9a:	c018                	sw	a4,0(s0)
    2b9c:	01378023          	sb	s3,0(a5)
    2ba0:	485c                	lw	a5,20(s0)
    2ba2:	00a78863          	beq	a5,a0,2bb2 <__swbuf_r+0x7a>
    2ba6:	245e                	lhu	a5,12(s0)
    2ba8:	8b85                	andi	a5,a5,1
    2baa:	cb81                	beqz	a5,2bba <__swbuf_r+0x82>
    2bac:	47a9                	li	a5,10
    2bae:	00f91663          	bne	s2,a5,2bba <__swbuf_r+0x82>
    2bb2:	85a2                	mv	a1,s0
    2bb4:	8526                	mv	a0,s1
    2bb6:	24d1                	jal	2e7a <_fflush_r>
    2bb8:	ed0d                	bnez	a0,2bf2 <__swbuf_r+0xba>
    2bba:	40f2                	lw	ra,28(sp)
    2bbc:	4462                	lw	s0,24(sp)
    2bbe:	854a                	mv	a0,s2
    2bc0:	44d2                	lw	s1,20(sp)
    2bc2:	4942                	lw	s2,16(sp)
    2bc4:	49b2                	lw	s3,12(sp)
    2bc6:	6105                	addi	sp,sp,32
    2bc8:	8082                	ret
    2bca:	00000797          	auipc	a5,0x0
    2bce:	73278793          	addi	a5,a5,1842 # 32fc <__sf_fake_stdout>
    2bd2:	00f41463          	bne	s0,a5,2bda <__swbuf_r+0xa2>
    2bd6:	4480                	lw	s0,8(s1)
    2bd8:	b769                	j	2b62 <__swbuf_r+0x2a>
    2bda:	00000797          	auipc	a5,0x0
    2bde:	6e278793          	addi	a5,a5,1762 # 32bc <__sf_fake_stderr>
    2be2:	f8f410e3          	bne	s0,a5,2b62 <__swbuf_r+0x2a>
    2be6:	44c0                	lw	s0,12(s1)
    2be8:	bfad                	j	2b62 <__swbuf_r+0x2a>
    2bea:	85a2                	mv	a1,s0
    2bec:	8526                	mv	a0,s1
    2bee:	281d                	jal	2c24 <__swsetup_r>
    2bf0:	d141                	beqz	a0,2b70 <__swbuf_r+0x38>
    2bf2:	597d                	li	s2,-1
    2bf4:	b7d9                	j	2bba <__swbuf_r+0x82>

00002bf6 <_write_r>:
    2bf6:	1141                	addi	sp,sp,-16
    2bf8:	c422                	sw	s0,8(sp)
    2bfa:	842a                	mv	s0,a0
    2bfc:	852e                	mv	a0,a1
    2bfe:	85b2                	mv	a1,a2
    2c00:	8636                	mv	a2,a3
    2c02:	f401a023          	sw	zero,-192(gp) # 20000838 <errno>
    2c06:	c606                	sw	ra,12(sp)
    2c08:	b7cff0ef          	jal	ra,1f84 <_write>
    2c0c:	57fd                	li	a5,-1
    2c0e:	00f51763          	bne	a0,a5,2c1c <_write_r+0x26>
    2c12:	f4018793          	addi	a5,gp,-192 # 20000838 <errno>
    2c16:	439c                	lw	a5,0(a5)
    2c18:	c391                	beqz	a5,2c1c <_write_r+0x26>
    2c1a:	c01c                	sw	a5,0(s0)
    2c1c:	40b2                	lw	ra,12(sp)
    2c1e:	4422                	lw	s0,8(sp)
    2c20:	0141                	addi	sp,sp,16
    2c22:	8082                	ret

00002c24 <__swsetup_r>:
    2c24:	1141                	addi	sp,sp,-16
    2c26:	80c18793          	addi	a5,gp,-2036 # 20000104 <_impure_ptr>
    2c2a:	c226                	sw	s1,4(sp)
    2c2c:	4384                	lw	s1,0(a5)
    2c2e:	c422                	sw	s0,8(sp)
    2c30:	c04a                	sw	s2,0(sp)
    2c32:	c606                	sw	ra,12(sp)
    2c34:	892a                	mv	s2,a0
    2c36:	842e                	mv	s0,a1
    2c38:	c491                	beqz	s1,2c44 <__swsetup_r+0x20>
    2c3a:	4c9c                	lw	a5,24(s1)
    2c3c:	e781                	bnez	a5,2c44 <__swsetup_r+0x20>
    2c3e:	8526                	mv	a0,s1
    2c40:	d4aff0ef          	jal	ra,218a <__sinit>
    2c44:	00000797          	auipc	a5,0x0
    2c48:	69878793          	addi	a5,a5,1688 # 32dc <__sf_fake_stdin>
    2c4c:	02f41b63          	bne	s0,a5,2c82 <__swsetup_r+0x5e>
    2c50:	40c0                	lw	s0,4(s1)
    2c52:	00c41703          	lh	a4,12(s0)
    2c56:	01071793          	slli	a5,a4,0x10
    2c5a:	83c1                	srli	a5,a5,0x10
    2c5c:	0087f693          	andi	a3,a5,8
    2c60:	eaad                	bnez	a3,2cd2 <__swsetup_r+0xae>
    2c62:	0107f693          	andi	a3,a5,16
    2c66:	ee95                	bnez	a3,2ca2 <__swsetup_r+0x7e>
    2c68:	47a5                	li	a5,9
    2c6a:	00f92023          	sw	a5,0(s2)
    2c6e:	04076713          	ori	a4,a4,64
    2c72:	a45a                	sh	a4,12(s0)
    2c74:	557d                	li	a0,-1
    2c76:	40b2                	lw	ra,12(sp)
    2c78:	4422                	lw	s0,8(sp)
    2c7a:	4492                	lw	s1,4(sp)
    2c7c:	4902                	lw	s2,0(sp)
    2c7e:	0141                	addi	sp,sp,16
    2c80:	8082                	ret
    2c82:	00000797          	auipc	a5,0x0
    2c86:	67a78793          	addi	a5,a5,1658 # 32fc <__sf_fake_stdout>
    2c8a:	00f41463          	bne	s0,a5,2c92 <__swsetup_r+0x6e>
    2c8e:	4480                	lw	s0,8(s1)
    2c90:	b7c9                	j	2c52 <__swsetup_r+0x2e>
    2c92:	00000797          	auipc	a5,0x0
    2c96:	62a78793          	addi	a5,a5,1578 # 32bc <__sf_fake_stderr>
    2c9a:	faf41ce3          	bne	s0,a5,2c52 <__swsetup_r+0x2e>
    2c9e:	44c0                	lw	s0,12(s1)
    2ca0:	bf4d                	j	2c52 <__swsetup_r+0x2e>
    2ca2:	8b91                	andi	a5,a5,4
    2ca4:	c39d                	beqz	a5,2cca <__swsetup_r+0xa6>
    2ca6:	584c                	lw	a1,52(s0)
    2ca8:	c989                	beqz	a1,2cba <__swsetup_r+0x96>
    2caa:	04440793          	addi	a5,s0,68
    2cae:	00f58463          	beq	a1,a5,2cb6 <__swsetup_r+0x92>
    2cb2:	854a                	mv	a0,s2
    2cb4:	2ea9                	jal	300e <_free_r>
    2cb6:	02042a23          	sw	zero,52(s0)
    2cba:	245e                	lhu	a5,12(s0)
    2cbc:	00042223          	sw	zero,4(s0)
    2cc0:	fdb7f793          	andi	a5,a5,-37
    2cc4:	a45e                	sh	a5,12(s0)
    2cc6:	481c                	lw	a5,16(s0)
    2cc8:	c01c                	sw	a5,0(s0)
    2cca:	245e                	lhu	a5,12(s0)
    2ccc:	0087e793          	ori	a5,a5,8
    2cd0:	a45e                	sh	a5,12(s0)
    2cd2:	481c                	lw	a5,16(s0)
    2cd4:	eb99                	bnez	a5,2cea <__swsetup_r+0xc6>
    2cd6:	245e                	lhu	a5,12(s0)
    2cd8:	20000713          	li	a4,512
    2cdc:	2807f793          	andi	a5,a5,640
    2ce0:	00e78563          	beq	a5,a4,2cea <__swsetup_r+0xc6>
    2ce4:	85a2                	mv	a1,s0
    2ce6:	854a                	mv	a0,s2
    2ce8:	2cad                	jal	2f62 <__smakebuf_r>
    2cea:	245e                	lhu	a5,12(s0)
    2cec:	0017f713          	andi	a4,a5,1
    2cf0:	c31d                	beqz	a4,2d16 <__swsetup_r+0xf2>
    2cf2:	485c                	lw	a5,20(s0)
    2cf4:	00042423          	sw	zero,8(s0)
    2cf8:	40f007b3          	neg	a5,a5
    2cfc:	cc1c                	sw	a5,24(s0)
    2cfe:	481c                	lw	a5,16(s0)
    2d00:	4501                	li	a0,0
    2d02:	fbb5                	bnez	a5,2c76 <__swsetup_r+0x52>
    2d04:	00c41783          	lh	a5,12(s0)
    2d08:	0807f713          	andi	a4,a5,128
    2d0c:	d72d                	beqz	a4,2c76 <__swsetup_r+0x52>
    2d0e:	0407e793          	ori	a5,a5,64
    2d12:	a45e                	sh	a5,12(s0)
    2d14:	b785                	j	2c74 <__swsetup_r+0x50>
    2d16:	8b89                	andi	a5,a5,2
    2d18:	4701                	li	a4,0
    2d1a:	e391                	bnez	a5,2d1e <__swsetup_r+0xfa>
    2d1c:	4858                	lw	a4,20(s0)
    2d1e:	c418                	sw	a4,8(s0)
    2d20:	bff9                	j	2cfe <__swsetup_r+0xda>

00002d22 <_close_r>:
    2d22:	1141                	addi	sp,sp,-16
    2d24:	c422                	sw	s0,8(sp)
    2d26:	842a                	mv	s0,a0
    2d28:	852e                	mv	a0,a1
    2d2a:	f401a023          	sw	zero,-192(gp) # 20000838 <errno>
    2d2e:	c606                	sw	ra,12(sp)
    2d30:	2101                	jal	3130 <_close>
    2d32:	57fd                	li	a5,-1
    2d34:	00f51763          	bne	a0,a5,2d42 <_close_r+0x20>
    2d38:	f4018793          	addi	a5,gp,-192 # 20000838 <errno>
    2d3c:	439c                	lw	a5,0(a5)
    2d3e:	c391                	beqz	a5,2d42 <_close_r+0x20>
    2d40:	c01c                	sw	a5,0(s0)
    2d42:	40b2                	lw	ra,12(sp)
    2d44:	4422                	lw	s0,8(sp)
    2d46:	0141                	addi	sp,sp,16
    2d48:	8082                	ret

00002d4a <__sflush_r>:
    2d4a:	25de                	lhu	a5,12(a1)
    2d4c:	1101                	addi	sp,sp,-32
    2d4e:	cc22                	sw	s0,24(sp)
    2d50:	ca26                	sw	s1,20(sp)
    2d52:	ce06                	sw	ra,28(sp)
    2d54:	c84a                	sw	s2,16(sp)
    2d56:	c64e                	sw	s3,12(sp)
    2d58:	0087f713          	andi	a4,a5,8
    2d5c:	84aa                	mv	s1,a0
    2d5e:	842e                	mv	s0,a1
    2d60:	eb79                	bnez	a4,2e36 <__sflush_r+0xec>
    2d62:	41d8                	lw	a4,4(a1)
    2d64:	00e04d63          	bgtz	a4,2d7e <__sflush_r+0x34>
    2d68:	41b8                	lw	a4,64(a1)
    2d6a:	00e04a63          	bgtz	a4,2d7e <__sflush_r+0x34>
    2d6e:	4501                	li	a0,0
    2d70:	40f2                	lw	ra,28(sp)
    2d72:	4462                	lw	s0,24(sp)
    2d74:	44d2                	lw	s1,20(sp)
    2d76:	4942                	lw	s2,16(sp)
    2d78:	49b2                	lw	s3,12(sp)
    2d7a:	6105                	addi	sp,sp,32
    2d7c:	8082                	ret
    2d7e:	5458                	lw	a4,44(s0)
    2d80:	d77d                	beqz	a4,2d6e <__sflush_r+0x24>
    2d82:	0004a903          	lw	s2,0(s1)
    2d86:	01379693          	slli	a3,a5,0x13
    2d8a:	0004a023          	sw	zero,0(s1)
    2d8e:	0606db63          	bgez	a3,2e04 <__sflush_r+0xba>
    2d92:	4870                	lw	a2,84(s0)
    2d94:	245e                	lhu	a5,12(s0)
    2d96:	8b91                	andi	a5,a5,4
    2d98:	c799                	beqz	a5,2da6 <__sflush_r+0x5c>
    2d9a:	405c                	lw	a5,4(s0)
    2d9c:	8e1d                	sub	a2,a2,a5
    2d9e:	585c                	lw	a5,52(s0)
    2da0:	c399                	beqz	a5,2da6 <__sflush_r+0x5c>
    2da2:	403c                	lw	a5,64(s0)
    2da4:	8e1d                	sub	a2,a2,a5
    2da6:	545c                	lw	a5,44(s0)
    2da8:	500c                	lw	a1,32(s0)
    2daa:	4681                	li	a3,0
    2dac:	8526                	mv	a0,s1
    2dae:	9782                	jalr	a5
    2db0:	57fd                	li	a5,-1
    2db2:	245a                	lhu	a4,12(s0)
    2db4:	00f51d63          	bne	a0,a5,2dce <__sflush_r+0x84>
    2db8:	4094                	lw	a3,0(s1)
    2dba:	47f5                	li	a5,29
    2dbc:	06d7e863          	bltu	a5,a3,2e2c <__sflush_r+0xe2>
    2dc0:	204007b7          	lui	a5,0x20400
    2dc4:	0785                	addi	a5,a5,1
    2dc6:	00d7d7b3          	srl	a5,a5,a3
    2dca:	8b85                	andi	a5,a5,1
    2dcc:	c3a5                	beqz	a5,2e2c <__sflush_r+0xe2>
    2dce:	481c                	lw	a5,16(s0)
    2dd0:	00042223          	sw	zero,4(s0)
    2dd4:	c01c                	sw	a5,0(s0)
    2dd6:	01371793          	slli	a5,a4,0x13
    2dda:	0007d863          	bgez	a5,2dea <__sflush_r+0xa0>
    2dde:	57fd                	li	a5,-1
    2de0:	00f51463          	bne	a0,a5,2de8 <__sflush_r+0x9e>
    2de4:	409c                	lw	a5,0(s1)
    2de6:	e391                	bnez	a5,2dea <__sflush_r+0xa0>
    2de8:	c868                	sw	a0,84(s0)
    2dea:	584c                	lw	a1,52(s0)
    2dec:	0124a023          	sw	s2,0(s1)
    2df0:	ddbd                	beqz	a1,2d6e <__sflush_r+0x24>
    2df2:	04440793          	addi	a5,s0,68
    2df6:	00f58463          	beq	a1,a5,2dfe <__sflush_r+0xb4>
    2dfa:	8526                	mv	a0,s1
    2dfc:	2c09                	jal	300e <_free_r>
    2dfe:	02042a23          	sw	zero,52(s0)
    2e02:	b7b5                	j	2d6e <__sflush_r+0x24>
    2e04:	500c                	lw	a1,32(s0)
    2e06:	4601                	li	a2,0
    2e08:	4685                	li	a3,1
    2e0a:	8526                	mv	a0,s1
    2e0c:	9702                	jalr	a4
    2e0e:	57fd                	li	a5,-1
    2e10:	862a                	mv	a2,a0
    2e12:	f8f511e3          	bne	a0,a5,2d94 <__sflush_r+0x4a>
    2e16:	409c                	lw	a5,0(s1)
    2e18:	dfb5                	beqz	a5,2d94 <__sflush_r+0x4a>
    2e1a:	4775                	li	a4,29
    2e1c:	00e78563          	beq	a5,a4,2e26 <__sflush_r+0xdc>
    2e20:	4759                	li	a4,22
    2e22:	04e79363          	bne	a5,a4,2e68 <__sflush_r+0x11e>
    2e26:	0124a023          	sw	s2,0(s1)
    2e2a:	b791                	j	2d6e <__sflush_r+0x24>
    2e2c:	04076713          	ori	a4,a4,64
    2e30:	a45a                	sh	a4,12(s0)
    2e32:	557d                	li	a0,-1
    2e34:	bf35                	j	2d70 <__sflush_r+0x26>
    2e36:	0105a983          	lw	s3,16(a1)
    2e3a:	f2098ae3          	beqz	s3,2d6e <__sflush_r+0x24>
    2e3e:	0005a903          	lw	s2,0(a1)
    2e42:	8b8d                	andi	a5,a5,3
    2e44:	0135a023          	sw	s3,0(a1)
    2e48:	41390933          	sub	s2,s2,s3
    2e4c:	4701                	li	a4,0
    2e4e:	e391                	bnez	a5,2e52 <__sflush_r+0x108>
    2e50:	49d8                	lw	a4,20(a1)
    2e52:	c418                	sw	a4,8(s0)
    2e54:	f1205de3          	blez	s2,2d6e <__sflush_r+0x24>
    2e58:	541c                	lw	a5,40(s0)
    2e5a:	500c                	lw	a1,32(s0)
    2e5c:	86ca                	mv	a3,s2
    2e5e:	864e                	mv	a2,s3
    2e60:	8526                	mv	a0,s1
    2e62:	9782                	jalr	a5
    2e64:	00a04763          	bgtz	a0,2e72 <__sflush_r+0x128>
    2e68:	245e                	lhu	a5,12(s0)
    2e6a:	0407e793          	ori	a5,a5,64
    2e6e:	a45e                	sh	a5,12(s0)
    2e70:	b7c9                	j	2e32 <__sflush_r+0xe8>
    2e72:	99aa                	add	s3,s3,a0
    2e74:	40a90933          	sub	s2,s2,a0
    2e78:	bff1                	j	2e54 <__sflush_r+0x10a>

00002e7a <_fflush_r>:
    2e7a:	499c                	lw	a5,16(a1)
    2e7c:	c3a5                	beqz	a5,2edc <_fflush_r+0x62>
    2e7e:	1101                	addi	sp,sp,-32
    2e80:	cc22                	sw	s0,24(sp)
    2e82:	ce06                	sw	ra,28(sp)
    2e84:	842a                	mv	s0,a0
    2e86:	c519                	beqz	a0,2e94 <_fflush_r+0x1a>
    2e88:	4d1c                	lw	a5,24(a0)
    2e8a:	e789                	bnez	a5,2e94 <_fflush_r+0x1a>
    2e8c:	c62e                	sw	a1,12(sp)
    2e8e:	afcff0ef          	jal	ra,218a <__sinit>
    2e92:	45b2                	lw	a1,12(sp)
    2e94:	00000797          	auipc	a5,0x0
    2e98:	44878793          	addi	a5,a5,1096 # 32dc <__sf_fake_stdin>
    2e9c:	00f59b63          	bne	a1,a5,2eb2 <_fflush_r+0x38>
    2ea0:	404c                	lw	a1,4(s0)
    2ea2:	00c59783          	lh	a5,12(a1)
    2ea6:	c795                	beqz	a5,2ed2 <_fflush_r+0x58>
    2ea8:	8522                	mv	a0,s0
    2eaa:	4462                	lw	s0,24(sp)
    2eac:	40f2                	lw	ra,28(sp)
    2eae:	6105                	addi	sp,sp,32
    2eb0:	bd69                	j	2d4a <__sflush_r>
    2eb2:	00000797          	auipc	a5,0x0
    2eb6:	44a78793          	addi	a5,a5,1098 # 32fc <__sf_fake_stdout>
    2eba:	00f59463          	bne	a1,a5,2ec2 <_fflush_r+0x48>
    2ebe:	440c                	lw	a1,8(s0)
    2ec0:	b7cd                	j	2ea2 <_fflush_r+0x28>
    2ec2:	00000797          	auipc	a5,0x0
    2ec6:	3fa78793          	addi	a5,a5,1018 # 32bc <__sf_fake_stderr>
    2eca:	fcf59ce3          	bne	a1,a5,2ea2 <_fflush_r+0x28>
    2ece:	444c                	lw	a1,12(s0)
    2ed0:	bfc9                	j	2ea2 <_fflush_r+0x28>
    2ed2:	40f2                	lw	ra,28(sp)
    2ed4:	4462                	lw	s0,24(sp)
    2ed6:	4501                	li	a0,0
    2ed8:	6105                	addi	sp,sp,32
    2eda:	8082                	ret
    2edc:	4501                	li	a0,0
    2ede:	8082                	ret

00002ee0 <_lseek_r>:
    2ee0:	1141                	addi	sp,sp,-16
    2ee2:	c422                	sw	s0,8(sp)
    2ee4:	842a                	mv	s0,a0
    2ee6:	852e                	mv	a0,a1
    2ee8:	85b2                	mv	a1,a2
    2eea:	8636                	mv	a2,a3
    2eec:	f401a023          	sw	zero,-192(gp) # 20000838 <errno>
    2ef0:	c606                	sw	ra,12(sp)
    2ef2:	248d                	jal	3154 <_lseek>
    2ef4:	57fd                	li	a5,-1
    2ef6:	00f51763          	bne	a0,a5,2f04 <_lseek_r+0x24>
    2efa:	f4018793          	addi	a5,gp,-192 # 20000838 <errno>
    2efe:	439c                	lw	a5,0(a5)
    2f00:	c391                	beqz	a5,2f04 <_lseek_r+0x24>
    2f02:	c01c                	sw	a5,0(s0)
    2f04:	40b2                	lw	ra,12(sp)
    2f06:	4422                	lw	s0,8(sp)
    2f08:	0141                	addi	sp,sp,16
    2f0a:	8082                	ret

00002f0c <__swhatbuf_r>:
    2f0c:	7119                	addi	sp,sp,-128
    2f0e:	daa6                	sw	s1,116(sp)
    2f10:	84ae                	mv	s1,a1
    2f12:	00e59583          	lh	a1,14(a1)
    2f16:	dca2                	sw	s0,120(sp)
    2f18:	de86                	sw	ra,124(sp)
    2f1a:	8432                	mv	s0,a2
    2f1c:	0005db63          	bgez	a1,2f32 <__swhatbuf_r+0x26>
    2f20:	24de                	lhu	a5,12(s1)
    2f22:	0006a023          	sw	zero,0(a3)
    2f26:	0807f793          	andi	a5,a5,128
    2f2a:	e39d                	bnez	a5,2f50 <__swhatbuf_r+0x44>
    2f2c:	40000793          	li	a5,1024
    2f30:	a015                	j	2f54 <__swhatbuf_r+0x48>
    2f32:	0830                	addi	a2,sp,24
    2f34:	c636                	sw	a3,12(sp)
    2f36:	2265                	jal	30de <_fstat_r>
    2f38:	46b2                	lw	a3,12(sp)
    2f3a:	fe0543e3          	bltz	a0,2f20 <__swhatbuf_r+0x14>
    2f3e:	4772                	lw	a4,28(sp)
    2f40:	67bd                	lui	a5,0xf
    2f42:	8ff9                	and	a5,a5,a4
    2f44:	7779                	lui	a4,0xffffe
    2f46:	97ba                	add	a5,a5,a4
    2f48:	0017b793          	seqz	a5,a5
    2f4c:	c29c                	sw	a5,0(a3)
    2f4e:	bff9                	j	2f2c <__swhatbuf_r+0x20>
    2f50:	04000793          	li	a5,64
    2f54:	c01c                	sw	a5,0(s0)
    2f56:	50f6                	lw	ra,124(sp)
    2f58:	5466                	lw	s0,120(sp)
    2f5a:	54d6                	lw	s1,116(sp)
    2f5c:	4501                	li	a0,0
    2f5e:	6109                	addi	sp,sp,128
    2f60:	8082                	ret

00002f62 <__smakebuf_r>:
    2f62:	25de                	lhu	a5,12(a1)
    2f64:	1101                	addi	sp,sp,-32
    2f66:	cc22                	sw	s0,24(sp)
    2f68:	ce06                	sw	ra,28(sp)
    2f6a:	ca26                	sw	s1,20(sp)
    2f6c:	c84a                	sw	s2,16(sp)
    2f6e:	8b89                	andi	a5,a5,2
    2f70:	842e                	mv	s0,a1
    2f72:	cf89                	beqz	a5,2f8c <__smakebuf_r+0x2a>
    2f74:	04740793          	addi	a5,s0,71
    2f78:	c01c                	sw	a5,0(s0)
    2f7a:	c81c                	sw	a5,16(s0)
    2f7c:	4785                	li	a5,1
    2f7e:	c85c                	sw	a5,20(s0)
    2f80:	40f2                	lw	ra,28(sp)
    2f82:	4462                	lw	s0,24(sp)
    2f84:	44d2                	lw	s1,20(sp)
    2f86:	4942                	lw	s2,16(sp)
    2f88:	6105                	addi	sp,sp,32
    2f8a:	8082                	ret
    2f8c:	0074                	addi	a3,sp,12
    2f8e:	0030                	addi	a2,sp,8
    2f90:	84aa                	mv	s1,a0
    2f92:	3fad                	jal	2f0c <__swhatbuf_r>
    2f94:	45a2                	lw	a1,8(sp)
    2f96:	892a                	mv	s2,a0
    2f98:	8526                	mv	a0,s1
    2f9a:	b5cff0ef          	jal	ra,22f6 <_malloc_r>
    2f9e:	e919                	bnez	a0,2fb4 <__smakebuf_r+0x52>
    2fa0:	00c41783          	lh	a5,12(s0)
    2fa4:	2007f713          	andi	a4,a5,512
    2fa8:	ff61                	bnez	a4,2f80 <__smakebuf_r+0x1e>
    2faa:	9bf1                	andi	a5,a5,-4
    2fac:	0027e793          	ori	a5,a5,2
    2fb0:	a45e                	sh	a5,12(s0)
    2fb2:	b7c9                	j	2f74 <__smakebuf_r+0x12>
    2fb4:	fffff797          	auipc	a5,0xfffff
    2fb8:	18678793          	addi	a5,a5,390 # 213a <_cleanup_r>
    2fbc:	d49c                	sw	a5,40(s1)
    2fbe:	245e                	lhu	a5,12(s0)
    2fc0:	c008                	sw	a0,0(s0)
    2fc2:	c808                	sw	a0,16(s0)
    2fc4:	0807e793          	ori	a5,a5,128
    2fc8:	a45e                	sh	a5,12(s0)
    2fca:	47a2                	lw	a5,8(sp)
    2fcc:	c85c                	sw	a5,20(s0)
    2fce:	47b2                	lw	a5,12(sp)
    2fd0:	cb99                	beqz	a5,2fe6 <__smakebuf_r+0x84>
    2fd2:	00e41583          	lh	a1,14(s0)
    2fd6:	8526                	mv	a0,s1
    2fd8:	2a05                	jal	3108 <_isatty_r>
    2fda:	c511                	beqz	a0,2fe6 <__smakebuf_r+0x84>
    2fdc:	245e                	lhu	a5,12(s0)
    2fde:	9bf1                	andi	a5,a5,-4
    2fe0:	0017e793          	ori	a5,a5,1
    2fe4:	a45e                	sh	a5,12(s0)
    2fe6:	245e                	lhu	a5,12(s0)
    2fe8:	00f96933          	or	s2,s2,a5
    2fec:	01241623          	sh	s2,12(s0)
    2ff0:	bf41                	j	2f80 <__smakebuf_r+0x1e>

00002ff2 <memchr>:
    2ff2:	0ff5f593          	andi	a1,a1,255
    2ff6:	962a                	add	a2,a2,a0
    2ff8:	00c51463          	bne	a0,a2,3000 <memchr+0xe>
    2ffc:	4501                	li	a0,0
    2ffe:	8082                	ret
    3000:	211c                	lbu	a5,0(a0)
    3002:	feb78ee3          	beq	a5,a1,2ffe <memchr+0xc>
    3006:	0505                	addi	a0,a0,1
    3008:	bfc5                	j	2ff8 <memchr+0x6>

0000300a <__malloc_lock>:
    300a:	8082                	ret

0000300c <__malloc_unlock>:
    300c:	8082                	ret

0000300e <_free_r>:
    300e:	c1cd                	beqz	a1,30b0 <_free_r+0xa2>
    3010:	ffc5a783          	lw	a5,-4(a1)
    3014:	1141                	addi	sp,sp,-16
    3016:	c422                	sw	s0,8(sp)
    3018:	c606                	sw	ra,12(sp)
    301a:	c226                	sw	s1,4(sp)
    301c:	ffc58413          	addi	s0,a1,-4
    3020:	0007d363          	bgez	a5,3026 <_free_r+0x18>
    3024:	943e                	add	s0,s0,a5
    3026:	84aa                	mv	s1,a0
    3028:	37cd                	jal	300a <__malloc_lock>
    302a:	85018793          	addi	a5,gp,-1968 # 20000148 <__malloc_free_list>
    302e:	439c                	lw	a5,0(a5)
    3030:	eb99                	bnez	a5,3046 <_free_r+0x38>
    3032:	00042223          	sw	zero,4(s0)
    3036:	8481a823          	sw	s0,-1968(gp) # 20000148 <__malloc_free_list>
    303a:	4422                	lw	s0,8(sp)
    303c:	40b2                	lw	ra,12(sp)
    303e:	8526                	mv	a0,s1
    3040:	4492                	lw	s1,4(sp)
    3042:	0141                	addi	sp,sp,16
    3044:	b7e1                	j	300c <__malloc_unlock>
    3046:	00f47e63          	bgeu	s0,a5,3062 <_free_r+0x54>
    304a:	4014                	lw	a3,0(s0)
    304c:	00d40733          	add	a4,s0,a3
    3050:	00e79663          	bne	a5,a4,305c <_free_r+0x4e>
    3054:	4398                	lw	a4,0(a5)
    3056:	43dc                	lw	a5,4(a5)
    3058:	9736                	add	a4,a4,a3
    305a:	c018                	sw	a4,0(s0)
    305c:	c05c                	sw	a5,4(s0)
    305e:	bfe1                	j	3036 <_free_r+0x28>
    3060:	87ba                	mv	a5,a4
    3062:	43d8                	lw	a4,4(a5)
    3064:	c319                	beqz	a4,306a <_free_r+0x5c>
    3066:	fee47de3          	bgeu	s0,a4,3060 <_free_r+0x52>
    306a:	4394                	lw	a3,0(a5)
    306c:	00d78633          	add	a2,a5,a3
    3070:	00861f63          	bne	a2,s0,308e <_free_r+0x80>
    3074:	4010                	lw	a2,0(s0)
    3076:	96b2                	add	a3,a3,a2
    3078:	c394                	sw	a3,0(a5)
    307a:	00d78633          	add	a2,a5,a3
    307e:	fac71ee3          	bne	a4,a2,303a <_free_r+0x2c>
    3082:	4310                	lw	a2,0(a4)
    3084:	4358                	lw	a4,4(a4)
    3086:	96b2                	add	a3,a3,a2
    3088:	c394                	sw	a3,0(a5)
    308a:	c3d8                	sw	a4,4(a5)
    308c:	b77d                	j	303a <_free_r+0x2c>
    308e:	00c47563          	bgeu	s0,a2,3098 <_free_r+0x8a>
    3092:	47b1                	li	a5,12
    3094:	c09c                	sw	a5,0(s1)
    3096:	b755                	j	303a <_free_r+0x2c>
    3098:	4010                	lw	a2,0(s0)
    309a:	00c406b3          	add	a3,s0,a2
    309e:	00d71663          	bne	a4,a3,30aa <_free_r+0x9c>
    30a2:	4314                	lw	a3,0(a4)
    30a4:	4358                	lw	a4,4(a4)
    30a6:	96b2                	add	a3,a3,a2
    30a8:	c014                	sw	a3,0(s0)
    30aa:	c058                	sw	a4,4(s0)
    30ac:	c3c0                	sw	s0,4(a5)
    30ae:	b771                	j	303a <_free_r+0x2c>
    30b0:	8082                	ret

000030b2 <_read_r>:
    30b2:	1141                	addi	sp,sp,-16
    30b4:	c422                	sw	s0,8(sp)
    30b6:	842a                	mv	s0,a0
    30b8:	852e                	mv	a0,a1
    30ba:	85b2                	mv	a1,a2
    30bc:	8636                	mv	a2,a3
    30be:	f401a023          	sw	zero,-192(gp) # 20000838 <errno>
    30c2:	c606                	sw	ra,12(sp)
    30c4:	2871                	jal	3160 <_read>
    30c6:	57fd                	li	a5,-1
    30c8:	00f51763          	bne	a0,a5,30d6 <_read_r+0x24>
    30cc:	f4018793          	addi	a5,gp,-192 # 20000838 <errno>
    30d0:	439c                	lw	a5,0(a5)
    30d2:	c391                	beqz	a5,30d6 <_read_r+0x24>
    30d4:	c01c                	sw	a5,0(s0)
    30d6:	40b2                	lw	ra,12(sp)
    30d8:	4422                	lw	s0,8(sp)
    30da:	0141                	addi	sp,sp,16
    30dc:	8082                	ret

000030de <_fstat_r>:
    30de:	1141                	addi	sp,sp,-16
    30e0:	c422                	sw	s0,8(sp)
    30e2:	842a                	mv	s0,a0
    30e4:	852e                	mv	a0,a1
    30e6:	85b2                	mv	a1,a2
    30e8:	f401a023          	sw	zero,-192(gp) # 20000838 <errno>
    30ec:	c606                	sw	ra,12(sp)
    30ee:	20b9                	jal	313c <_fstat>
    30f0:	57fd                	li	a5,-1
    30f2:	00f51763          	bne	a0,a5,3100 <_fstat_r+0x22>
    30f6:	f4018793          	addi	a5,gp,-192 # 20000838 <errno>
    30fa:	439c                	lw	a5,0(a5)
    30fc:	c391                	beqz	a5,3100 <_fstat_r+0x22>
    30fe:	c01c                	sw	a5,0(s0)
    3100:	40b2                	lw	ra,12(sp)
    3102:	4422                	lw	s0,8(sp)
    3104:	0141                	addi	sp,sp,16
    3106:	8082                	ret

00003108 <_isatty_r>:
    3108:	1141                	addi	sp,sp,-16
    310a:	c422                	sw	s0,8(sp)
    310c:	842a                	mv	s0,a0
    310e:	852e                	mv	a0,a1
    3110:	f401a023          	sw	zero,-192(gp) # 20000838 <errno>
    3114:	c606                	sw	ra,12(sp)
    3116:	280d                	jal	3148 <_isatty>
    3118:	57fd                	li	a5,-1
    311a:	00f51763          	bne	a0,a5,3128 <_isatty_r+0x20>
    311e:	f4018793          	addi	a5,gp,-192 # 20000838 <errno>
    3122:	439c                	lw	a5,0(a5)
    3124:	c391                	beqz	a5,3128 <_isatty_r+0x20>
    3126:	c01c                	sw	a5,0(s0)
    3128:	40b2                	lw	ra,12(sp)
    312a:	4422                	lw	s0,8(sp)
    312c:	0141                	addi	sp,sp,16
    312e:	8082                	ret

00003130 <_close>:
    3130:	05800793          	li	a5,88
    3134:	f4f1a023          	sw	a5,-192(gp) # 20000838 <errno>
    3138:	557d                	li	a0,-1
    313a:	8082                	ret

0000313c <_fstat>:
    313c:	05800793          	li	a5,88
    3140:	f4f1a023          	sw	a5,-192(gp) # 20000838 <errno>
    3144:	557d                	li	a0,-1
    3146:	8082                	ret

00003148 <_isatty>:
    3148:	05800793          	li	a5,88
    314c:	f4f1a023          	sw	a5,-192(gp) # 20000838 <errno>
    3150:	4501                	li	a0,0
    3152:	8082                	ret

00003154 <_lseek>:
    3154:	05800793          	li	a5,88
    3158:	f4f1a023          	sw	a5,-192(gp) # 20000838 <errno>
    315c:	557d                	li	a0,-1
    315e:	8082                	ret

00003160 <_read>:
    3160:	05800793          	li	a5,88
    3164:	f4f1a023          	sw	a5,-192(gp) # 20000838 <errno>
    3168:	557d                	li	a0,-1
    316a:	8082                	ret

0000316c <s_bt_default>:
    316c:	0006 0000 0006 0000 0003 0000 0001 0000     ................
    317c:	0009 0000                                   ....

00003180 <zero.5601>:
	...
    318c:	4843 3233 3356 3530 6720 5f73 7375 2062     CH32V305 gs_usb 
    319c:	80e2 2094 7973 6373 6b6c 2520 2075 7a48     ... sysclk %u Hz
    31ac:	202c 6843 7069 4449 2520 3830 0d78 000a     , ChipID %08x...

000031bc <GSUSB_CfgDescr_FS>:
    31bc:	0209 0020 0101 8000 09fa 0004 0200 ffff     .. .............
    31cc:	00ff 0507 0281 0040 0700 0205 4002 0000     ......@......@..

000031dc <GSUSB_CfgDescr_HS>:
    31dc:	0209 0020 0101 8000 09fa 0004 0200 ffff     .. .............
    31ec:	00ff 0507 0281 0200 0700 0205 0002 0002     ................

000031fc <GSUSB_DeviceDescr>:
    31fc:	0112 0200 ffff 40ff 1d50 606f 0100 0201     .......@P.o`....
    320c:	0103 0000                                   ....

00003210 <GSUSB_QualifierDescr>:
    3210:	060a 0200 ffff 40ff 0001 0000               .......@....

0000321c <GSUSB_StrMfr>:
    321c:	0316 004d 0075 0073 006c 0065 0020 004c     ..M.u.s.l.e. .L.
    322c:	0061 0062 0073 0000                         a.b.s...

00003234 <GSUSB_StrProd>:
    3234:	0322 0043 0048 0033 0032 0056 0033 0030     ".C.H.3.2.V.3.0.
    3244:	0035 0020 0067 0073 005f 0075 0073 0062     5. .g.s._.u.s.b.

00003254 <GSUSB_StrSerial>:
    3254:	031a 0030 0030 0030 0030 0030 0030 0030     ..0.0.0.0.0.0.0.
    3264:	0030 0030 0030 0030 0031 0000 11c0 0000     0.0.0.0.1.......
    3274:	11cc 0000 109a 0000 11cc 0000 109a 0000     ................
    3284:	1152 0000 0ffe 0000 109a 0000 1182 0000     R...............
    3294:	1190 0000 11ba 0000 115c 0000 101c 0000     ........\.......
    32a4:	103e 0000 1080 0000 109a 0000 109a 0000     >...............
    32b4:	10e0 0000 10ec 0000                         ........

000032bc <__sf_fake_stderr>:
	...

000032dc <__sf_fake_stdin>:
	...

000032fc <__sf_fake_stdout>:
	...
    331c:	2d23 2b30 0020 0000 6c68 004c 6665 4567     #-0+ ...hlL.efgE
    332c:	4746 0000 3130 3332 3534 3736 3938 4241     FG..0123456789AB
    333c:	4443 4645 0000 0000 3130 3332 3534 3736     CDEF....01234567
    334c:	3938 6261 6463 6665 0000 0000               89abcdef....
